Archive member included to satisfy reference by file (symbol)

/usr/lib/gcc-cross/riscv64-linux-gnu/12/../../../../riscv64-linux-gnu/lib/libc.a(libc-start.o)
                              /usr/lib/gcc-cross/riscv64-linux-gnu/12/../../../../riscv64-linux-gnu/lib/crt1.o (__libc_start_main)
/usr/lib/gcc-cross/riscv64-linux-gnu/12/../../../../riscv64-linux-gnu/lib/libc.a(check_fds.o)
                              /usr/lib/gcc-cross/riscv64-linux-gnu/12/../../../../riscv64-linux-gnu/lib/libc.a(libc-start.o) (__libc_check_standard_fds)
/usr/lib/gcc-cross/riscv64-linux-gnu/12/../../../../riscv64-linux-gnu/lib/libc.a(libc-tls.o)
                              /usr/lib/gcc-cross/riscv64-linux-gnu/12/../../../../riscv64-linux-gnu/lib/libc.a(libc-start.o) (__libc_setup_tls)
/usr/lib/gcc-cross/riscv64-linux-gnu/12/../../../../riscv64-linux-gnu/lib/libc.a(errno.o)
                              /usr/lib/gcc-cross/riscv64-linux-gnu/12/../../../../riscv64-linux-gnu/lib/libc.a(check_fds.o) (__libc_errno)
/usr/lib/gcc-cross/riscv64-linux-gnu/12/../../../../riscv64-linux-gnu/lib/libc.a(assert.o)
                              /usr/lib/gcc-cross/riscv64-linux-gnu/12/../../../../riscv64-linux-gnu/lib/libc.a(libc-start.o) (__assert_fail)
/usr/lib/gcc-cross/riscv64-linux-gnu/12/../../../../riscv64-linux-gnu/lib/libc.a(dcgettext.o)
                              /usr/lib/gcc-cross/riscv64-linux-gnu/12/../../../../riscv64-linux-gnu/lib/libc.a(assert.o) (__dcgettext)
/usr/lib/gcc-cross/riscv64-linux-gnu/12/../../../../riscv64-linux-gnu/lib/libc.a(dcigettext.o)
                              /usr/lib/gcc-cross/riscv64-linux-gnu/12/../../../../riscv64-linux-gnu/lib/libc.a(dcgettext.o) (__dcigettext)
/usr/lib/gcc-cross/riscv64-linux-gnu/12/../../../../riscv64-linux-gnu/lib/libc.a(finddomain.o)
                              /usr/lib/gcc-cross/riscv64-linux-gnu/12/../../../../riscv64-linux-gnu/lib/libc.a(dcigettext.o) (_nl_find_domain)
/usr/lib/gcc-cross/riscv64-linux-gnu/12/../../../../riscv64-linux-gnu/lib/libc.a(loadmsgcat.o)
                              /usr/lib/gcc-cross/riscv64-linux-gnu/12/../../../../riscv64-linux-gnu/lib/libc.a(dcigettext.o) (_nl_load_domain)
/usr/lib/gcc-cross/riscv64-linux-gnu/12/../../../../riscv64-linux-gnu/lib/libc.a(localealias.o)
                              /usr/lib/gcc-cross/riscv64-linux-gnu/12/../../../../riscv64-linux-gnu/lib/libc.a(finddomain.o) (_nl_expand_alias)
/usr/lib/gcc-cross/riscv64-linux-gnu/12/../../../../riscv64-linux-gnu/lib/libc.a(l10nflist.o)
                              /usr/lib/gcc-cross/riscv64-linux-gnu/12/../../../../riscv64-linux-gnu/lib/libc.a(finddomain.o) (_nl_make_l10nflist)
/usr/lib/gcc-cross/riscv64-linux-gnu/12/../../../../riscv64-linux-gnu/lib/libc.a(explodename.o)
                              /usr/lib/gcc-cross/riscv64-linux-gnu/12/../../../../riscv64-linux-gnu/lib/libc.a(finddomain.o) (_nl_explode_name)
/usr/lib/gcc-cross/riscv64-linux-gnu/12/../../../../riscv64-linux-gnu/lib/libc.a(plural.o)
                              /usr/lib/gcc-cross/riscv64-linux-gnu/12/../../../../riscv64-linux-gnu/lib/libc.a(loadmsgcat.o) (__gettext_free_exp)
/usr/lib/gcc-cross/riscv64-linux-gnu/12/../../../../riscv64-linux-gnu/lib/libc.a(plural-exp.o)
                              /usr/lib/gcc-cross/riscv64-linux-gnu/12/../../../../riscv64-linux-gnu/lib/libc.a(loadmsgcat.o) (__gettext_extract_plural)
/usr/lib/gcc-cross/riscv64-linux-gnu/12/../../../../riscv64-linux-gnu/lib/libc.a(hash-string.o)
                              /usr/lib/gcc-cross/riscv64-linux-gnu/12/../../../../riscv64-linux-gnu/lib/libc.a(dcigettext.o) (__hash_string)
/usr/lib/gcc-cross/riscv64-linux-gnu/12/../../../../riscv64-linux-gnu/lib/libc.a(setjmp.o)
                              /usr/lib/gcc-cross/riscv64-linux-gnu/12/../../../../riscv64-linux-gnu/lib/libc.a(libc-start.o) (_setjmp)
/usr/lib/gcc-cross/riscv64-linux-gnu/12/../../../../riscv64-linux-gnu/lib/libc.a(sigjmp.o)
                              /usr/lib/gcc-cross/riscv64-linux-gnu/12/../../../../riscv64-linux-gnu/lib/libc.a(setjmp.o) (__sigjmp_save)
/usr/lib/gcc-cross/riscv64-linux-gnu/12/../../../../riscv64-linux-gnu/lib/libc.a(raise.o)
                              /usr/lib/gcc-cross/riscv64-linux-gnu/12/../../../../riscv64-linux-gnu/lib/libc.a(dcigettext.o) (raise)
/usr/lib/gcc-cross/riscv64-linux-gnu/12/../../../../riscv64-linux-gnu/lib/libc.a(sigprocmask.o)
                              /usr/lib/gcc-cross/riscv64-linux-gnu/12/../../../../riscv64-linux-gnu/lib/libc.a(sigjmp.o) (__sigprocmask)
/usr/lib/gcc-cross/riscv64-linux-gnu/12/../../../../riscv64-linux-gnu/lib/libc.a(abort.o)
                              /usr/lib/gcc-cross/riscv64-linux-gnu/12/../../../../riscv64-linux-gnu/lib/libc.a(assert.o) (abort)
/usr/lib/gcc-cross/riscv64-linux-gnu/12/../../../../riscv64-linux-gnu/lib/libc.a(msort.o)
                              /usr/lib/gcc-cross/riscv64-linux-gnu/12/../../../../riscv64-linux-gnu/lib/libc.a(localealias.o) (qsort)
/usr/lib/gcc-cross/riscv64-linux-gnu/12/../../../../riscv64-linux-gnu/lib/libc.a(getenv.o)
                              /usr/lib/gcc-cross/riscv64-linux-gnu/12/../../../../riscv64-linux-gnu/lib/libc.a(dcigettext.o) (getenv)
/usr/lib/gcc-cross/riscv64-linux-gnu/12/../../../../riscv64-linux-gnu/lib/libc.a(exit.o)
                              /usr/lib/gcc-cross/riscv64-linux-gnu/12/../../../../riscv64-linux-gnu/lib/libc.a(libc-start.o) (exit)
/usr/lib/gcc-cross/riscv64-linux-gnu/12/../../../../riscv64-linux-gnu/lib/libc.a(cxa_atexit.o)
                              /usr/lib/gcc-cross/riscv64-linux-gnu/12/../../../../riscv64-linux-gnu/lib/libc.a(libc-start.o) (__cxa_atexit)
/usr/lib/gcc-cross/riscv64-linux-gnu/12/../../../../riscv64-linux-gnu/lib/libc.a(strtoul.o)
                              /usr/lib/gcc-cross/riscv64-linux-gnu/12/../../../../riscv64-linux-gnu/lib/libc.a(plural-exp.o) (strtoul)
/usr/lib/gcc-cross/riscv64-linux-gnu/12/../../../../riscv64-linux-gnu/lib/libc.a(strtoul_l.o)
                              /usr/lib/gcc-cross/riscv64-linux-gnu/12/../../../../riscv64-linux-gnu/lib/libc.a(strtoul.o) (____strtoul_l_internal)
/usr/lib/gcc-cross/riscv64-linux-gnu/12/../../../../riscv64-linux-gnu/lib/libc.a(grouping.o)
                              /usr/lib/gcc-cross/riscv64-linux-gnu/12/../../../../riscv64-linux-gnu/lib/libc.a(strtoul_l.o) (__correctly_grouped_prefixmb)
/usr/lib/gcc-cross/riscv64-linux-gnu/12/../../../../riscv64-linux-gnu/lib/libc.a(asprintf.o)
                              /usr/lib/gcc-cross/riscv64-linux-gnu/12/../../../../riscv64-linux-gnu/lib/libc.a(assert.o) (__asprintf)
/usr/lib/gcc-cross/riscv64-linux-gnu/12/../../../../riscv64-linux-gnu/lib/libc.a(fxprintf.o)
                              /usr/lib/gcc-cross/riscv64-linux-gnu/12/../../../../riscv64-linux-gnu/lib/libc.a(assert.o) (__fxprintf)
/usr/lib/gcc-cross/riscv64-linux-gnu/12/../../../../riscv64-linux-gnu/lib/libc.a(iofclose.o)
                              /usr/lib/gcc-cross/riscv64-linux-gnu/12/../../../../riscv64-linux-gnu/lib/libc.a(localealias.o) (_IO_new_fclose)
/usr/lib/gcc-cross/riscv64-linux-gnu/12/../../../../riscv64-linux-gnu/lib/libc.a(iofflush.o)
                              /usr/lib/gcc-cross/riscv64-linux-gnu/12/../../../../riscv64-linux-gnu/lib/libc.a(assert.o) (_IO_fflush)
/usr/lib/gcc-cross/riscv64-linux-gnu/12/../../../../riscv64-linux-gnu/lib/libc.a(iofopen.o)
                              /usr/lib/gcc-cross/riscv64-linux-gnu/12/../../../../riscv64-linux-gnu/lib/libc.a(localealias.o) (_IO_new_fopen)
/usr/lib/gcc-cross/riscv64-linux-gnu/12/../../../../riscv64-linux-gnu/lib/libc.a(wfileops.o)
                              /usr/lib/gcc-cross/riscv64-linux-gnu/12/../../../../riscv64-linux-gnu/lib/libc.a(iofopen.o) (_IO_wfile_jumps_maybe_mmap)
/usr/lib/gcc-cross/riscv64-linux-gnu/12/../../../../riscv64-linux-gnu/lib/libc.a(iofwide.o)
                              /usr/lib/gcc-cross/riscv64-linux-gnu/12/../../../../riscv64-linux-gnu/lib/libc.a(wfileops.o) (__libio_codecvt_out)
/usr/lib/gcc-cross/riscv64-linux-gnu/12/../../../../riscv64-linux-gnu/lib/libc.a(vasprintf.o)
                              /usr/lib/gcc-cross/riscv64-linux-gnu/12/../../../../riscv64-linux-gnu/lib/libc.a(asprintf.o) (__vasprintf_internal)
/usr/lib/gcc-cross/riscv64-linux-gnu/12/../../../../riscv64-linux-gnu/lib/libc.a(libc_fatal.o)
                              /usr/lib/gcc-cross/riscv64-linux-gnu/12/../../../../riscv64-linux-gnu/lib/libc.a(libc-start.o) (__libc_fatal)
/usr/lib/gcc-cross/riscv64-linux-gnu/12/../../../../riscv64-linux-gnu/lib/libc.a(vtables.o)
                              /usr/lib/gcc-cross/riscv64-linux-gnu/12/../../../../riscv64-linux-gnu/lib/libc.a(iofclose.o) (_IO_vtable_check)
/usr/lib/gcc-cross/riscv64-linux-gnu/12/../../../../riscv64-linux-gnu/lib/libc.a(iofgets_u.o)
                              /usr/lib/gcc-cross/riscv64-linux-gnu/12/../../../../riscv64-linux-gnu/lib/libc.a(localealias.o) (__fgets_unlocked)
/usr/lib/gcc-cross/riscv64-linux-gnu/12/../../../../riscv64-linux-gnu/lib/libc.a(fileops.o)
                              /usr/lib/gcc-cross/riscv64-linux-gnu/12/../../../../riscv64-linux-gnu/lib/libc.a(wfileops.o) (_IO_file_close)
/usr/lib/gcc-cross/riscv64-linux-gnu/12/../../../../riscv64-linux-gnu/lib/libc.a(genops.o)
                              /usr/lib/gcc-cross/riscv64-linux-gnu/12/../../../../riscv64-linux-gnu/lib/libc.a(iofclose.o) (_IO_un_link)
/usr/lib/gcc-cross/riscv64-linux-gnu/12/../../../../riscv64-linux-gnu/lib/libc.a(stdfiles.o)
                              /usr/lib/gcc-cross/riscv64-linux-gnu/12/../../../../riscv64-linux-gnu/lib/libc.a(genops.o) (_IO_list_all)
/usr/lib/gcc-cross/riscv64-linux-gnu/12/../../../../riscv64-linux-gnu/lib/libc.a(stdio.o)
                              /usr/lib/gcc-cross/riscv64-linux-gnu/12/../../../../riscv64-linux-gnu/lib/libc.a(assert.o) (stderr)
/usr/lib/gcc-cross/riscv64-linux-gnu/12/../../../../riscv64-linux-gnu/lib/libc.a(strops.o)
                              /usr/lib/gcc-cross/riscv64-linux-gnu/12/../../../../riscv64-linux-gnu/lib/libc.a(vasprintf.o) (_IO_str_init_static_internal)
/usr/lib/gcc-cross/riscv64-linux-gnu/12/../../../../riscv64-linux-gnu/lib/libc.a(alloca_cutoff.o)
                              /usr/lib/gcc-cross/riscv64-linux-gnu/12/../../../../riscv64-linux-gnu/lib/libc.a(fxprintf.o) (__libc_alloca_cutoff)
/usr/lib/gcc-cross/riscv64-linux-gnu/12/../../../../riscv64-linux-gnu/lib/libc.a(libc-cleanup.o)
                              /usr/lib/gcc-cross/riscv64-linux-gnu/12/../../../../riscv64-linux-gnu/lib/libc.a(genops.o) (__libc_cleanup_push_defer)
/usr/lib/gcc-cross/riscv64-linux-gnu/12/../../../../riscv64-linux-gnu/lib/libc.a(lowlevellock.o)
                              /usr/lib/gcc-cross/riscv64-linux-gnu/12/../../../../riscv64-linux-gnu/lib/libc.a(dcigettext.o) (__lll_lock_wait_private)
/usr/lib/gcc-cross/riscv64-linux-gnu/12/../../../../riscv64-linux-gnu/lib/libc.a(nptl_deallocate_tsd.o)
                              /usr/lib/gcc-cross/riscv64-linux-gnu/12/../../../../riscv64-linux-gnu/lib/libc.a(libc-start.o) (__nptl_deallocate_tsd)
/usr/lib/gcc-cross/riscv64-linux-gnu/12/../../../../riscv64-linux-gnu/lib/libc.a(nptl_nthreads.o)
                              /usr/lib/gcc-cross/riscv64-linux-gnu/12/../../../../riscv64-linux-gnu/lib/libc.a(libc-start.o) (__nptl_nthreads)
/usr/lib/gcc-cross/riscv64-linux-gnu/12/../../../../riscv64-linux-gnu/lib/libc.a(pthread_keys.o)
                              /usr/lib/gcc-cross/riscv64-linux-gnu/12/../../../../riscv64-linux-gnu/lib/libc.a(nptl_deallocate_tsd.o) (__pthread_keys)
/usr/lib/gcc-cross/riscv64-linux-gnu/12/../../../../riscv64-linux-gnu/lib/libc.a(pthread_kill.o)
                              /usr/lib/gcc-cross/riscv64-linux-gnu/12/../../../../riscv64-linux-gnu/lib/libc.a(raise.o) (__pthread_kill)
/usr/lib/gcc-cross/riscv64-linux-gnu/12/../../../../riscv64-linux-gnu/lib/libc.a(pthread_rwlock_init.o)
                              /usr/lib/gcc-cross/riscv64-linux-gnu/12/../../../../riscv64-linux-gnu/lib/libc.a(loadmsgcat.o) (__pthread_rwlock_init)
/usr/lib/gcc-cross/riscv64-linux-gnu/12/../../../../riscv64-linux-gnu/lib/libc.a(pthread_rwlock_rdlock.o)
                              /usr/lib/gcc-cross/riscv64-linux-gnu/12/../../../../riscv64-linux-gnu/lib/libc.a(dcigettext.o) (__pthread_rwlock_rdlock)
/usr/lib/gcc-cross/riscv64-linux-gnu/12/../../../../riscv64-linux-gnu/lib/libc.a(pthread_rwlock_unlock.o)
                              /usr/lib/gcc-cross/riscv64-linux-gnu/12/../../../../riscv64-linux-gnu/lib/libc.a(dcigettext.o) (__pthread_rwlock_unlock)
/usr/lib/gcc-cross/riscv64-linux-gnu/12/../../../../riscv64-linux-gnu/lib/libc.a(pthread_rwlock_wrlock.o)
                              /usr/lib/gcc-cross/riscv64-linux-gnu/12/../../../../riscv64-linux-gnu/lib/libc.a(dcigettext.o) (__pthread_rwlock_wrlock)
/usr/lib/gcc-cross/riscv64-linux-gnu/12/../../../../riscv64-linux-gnu/lib/libc.a(pthread_self.o)
                              /usr/lib/gcc-cross/riscv64-linux-gnu/12/../../../../riscv64-linux-gnu/lib/libc.a(raise.o) (__pthread_self)
/usr/lib/gcc-cross/riscv64-linux-gnu/12/../../../../riscv64-linux-gnu/lib/libc.a(pthread_setcancelstate.o)
                              /usr/lib/gcc-cross/riscv64-linux-gnu/12/../../../../riscv64-linux-gnu/lib/libc.a(assert.o) (__pthread_setcancelstate)
/usr/lib/gcc-cross/riscv64-linux-gnu/12/../../../../riscv64-linux-gnu/lib/libc.a(pthread_sigmask.o)
                              /usr/lib/gcc-cross/riscv64-linux-gnu/12/../../../../riscv64-linux-gnu/lib/libc.a(sigprocmask.o) (__pthread_sigmask)
/usr/lib/gcc-cross/riscv64-linux-gnu/12/../../../../riscv64-linux-gnu/lib/libc.a(pthread_testcancel.o)
                              /usr/lib/gcc-cross/riscv64-linux-gnu/12/../../../../riscv64-linux-gnu/lib/libc.a(libc-cleanup.o) (__pthread_testcancel)
/usr/lib/gcc-cross/riscv64-linux-gnu/12/../../../../riscv64-linux-gnu/lib/libc.a(malloc.o)
                              /usr/lib/gcc-cross/riscv64-linux-gnu/12/../../../../riscv64-linux-gnu/lib/libc.a(dcigettext.o) (malloc)
/usr/lib/gcc-cross/riscv64-linux-gnu/12/../../../../riscv64-linux-gnu/lib/libc.a(strchr.o)
                              /usr/lib/gcc-cross/riscv64-linux-gnu/12/../../../../riscv64-linux-gnu/lib/libc.a(dcigettext.o) (strchr)
/usr/lib/gcc-cross/riscv64-linux-gnu/12/../../../../riscv64-linux-gnu/lib/libc.a(strcmp.o)
                              /usr/lib/gcc-cross/riscv64-linux-gnu/12/../../../../riscv64-linux-gnu/lib/libc.a(dcigettext.o) (strcmp)
/usr/lib/gcc-cross/riscv64-linux-gnu/12/../../../../riscv64-linux-gnu/lib/libc.a(strcpy.o)
                              /usr/lib/gcc-cross/riscv64-linux-gnu/12/../../../../riscv64-linux-gnu/lib/libc.a(assert.o) (strcpy)
/usr/lib/gcc-cross/riscv64-linux-gnu/12/../../../../riscv64-linux-gnu/lib/libc.a(strcspn.o)
                              /usr/lib/gcc-cross/riscv64-linux-gnu/12/../../../../riscv64-linux-gnu/lib/libc.a(dcigettext.o) (strcspn)
/usr/lib/gcc-cross/riscv64-linux-gnu/12/../../../../riscv64-linux-gnu/lib/libc.a(strdup.o)
                              /usr/lib/gcc-cross/riscv64-linux-gnu/12/../../../../riscv64-linux-gnu/lib/libc.a(dcigettext.o) (__strdup)
/usr/lib/gcc-cross/riscv64-linux-gnu/12/../../../../riscv64-linux-gnu/lib/libc.a(strlen.o)
                              /usr/lib/gcc-cross/riscv64-linux-gnu/12/../../../../riscv64-linux-gnu/lib/libc.a(dcigettext.o) (strlen)
/usr/lib/gcc-cross/riscv64-linux-gnu/12/../../../../riscv64-linux-gnu/lib/libc.a(strncmp.o)
                              /usr/lib/gcc-cross/riscv64-linux-gnu/12/../../../../riscv64-linux-gnu/lib/libc.a(l10nflist.o) (strncmp)
/usr/lib/gcc-cross/riscv64-linux-gnu/12/../../../../riscv64-linux-gnu/lib/libc.a(strstr.o)
                              /usr/lib/gcc-cross/riscv64-linux-gnu/12/../../../../riscv64-linux-gnu/lib/libc.a(dcigettext.o) (strstr)
/usr/lib/gcc-cross/riscv64-linux-gnu/12/../../../../riscv64-linux-gnu/lib/libc.a(memcmp.o)
                              /usr/lib/gcc-cross/riscv64-linux-gnu/12/../../../../riscv64-linux-gnu/lib/libc.a(strstr.o) (memcmp)
/usr/lib/gcc-cross/riscv64-linux-gnu/12/../../../../riscv64-linux-gnu/lib/libc.a(memmove.o)
                              /usr/lib/gcc-cross/riscv64-linux-gnu/12/../../../../riscv64-linux-gnu/lib/libc.a(wfileops.o) (memmove)
/usr/lib/gcc-cross/riscv64-linux-gnu/12/../../../../riscv64-linux-gnu/lib/libc.a(memset.o)
                              /usr/lib/gcc-cross/riscv64-linux-gnu/12/../../../../riscv64-linux-gnu/lib/libc.a(abort.o) (memset)
/usr/lib/gcc-cross/riscv64-linux-gnu/12/../../../../riscv64-linux-gnu/lib/libc.a(stpcpy.o)
                              /usr/lib/gcc-cross/riscv64-linux-gnu/12/../../../../riscv64-linux-gnu/lib/libc.a(dcigettext.o) (__stpcpy)
/usr/lib/gcc-cross/riscv64-linux-gnu/12/../../../../riscv64-linux-gnu/lib/libc.a(strcasecmp_l.o)
                              /usr/lib/gcc-cross/riscv64-linux-gnu/12/../../../../riscv64-linux-gnu/lib/libc.a(localealias.o) (__strcasecmp_l)
/usr/lib/gcc-cross/riscv64-linux-gnu/12/../../../../riscv64-linux-gnu/lib/libc.a(memcpy.o)
                              /usr/lib/gcc-cross/riscv64-linux-gnu/12/../../../../riscv64-linux-gnu/lib/libc.a(libc-tls.o) (memcpy)
/usr/lib/gcc-cross/riscv64-linux-gnu/12/../../../../riscv64-linux-gnu/lib/libc.a(wordcopy.o)
                              /usr/lib/gcc-cross/riscv64-linux-gnu/12/../../../../riscv64-linux-gnu/lib/libc.a(memmove.o) (_wordcopy_fwd_aligned)
/usr/lib/gcc-cross/riscv64-linux-gnu/12/../../../../riscv64-linux-gnu/lib/libc.a(rawmemchr.o)
                              /usr/lib/gcc-cross/riscv64-linux-gnu/12/../../../../riscv64-linux-gnu/lib/libc.a(dcigettext.o) (__rawmemchr)
/usr/lib/gcc-cross/riscv64-linux-gnu/12/../../../../riscv64-linux-gnu/lib/libc.a(strchrnul.o)
                              /usr/lib/gcc-cross/riscv64-linux-gnu/12/../../../../riscv64-linux-gnu/lib/libc.a(libc_fatal.o) (__strchrnul)
/usr/lib/gcc-cross/riscv64-linux-gnu/12/../../../../riscv64-linux-gnu/lib/libc.a(wmempcpy.o)
                              /usr/lib/gcc-cross/riscv64-linux-gnu/12/../../../../riscv64-linux-gnu/lib/libc.a(wfileops.o) (__wmempcpy)
/usr/lib/gcc-cross/riscv64-linux-gnu/12/../../../../riscv64-linux-gnu/lib/libc.a(mbsrtowcs.o)
                              /usr/lib/gcc-cross/riscv64-linux-gnu/12/../../../../riscv64-linux-gnu/lib/libc.a(fxprintf.o) (__mbsrtowcs)
/usr/lib/gcc-cross/riscv64-linux-gnu/12/../../../../riscv64-linux-gnu/lib/libc.a(wcsmbsload.o)
                              /usr/lib/gcc-cross/riscv64-linux-gnu/12/../../../../riscv64-linux-gnu/lib/libc.a(iofwide.o) (__wcsmbs_clone_conv)
/usr/lib/gcc-cross/riscv64-linux-gnu/12/../../../../riscv64-linux-gnu/lib/libc.a(mbsrtowcs_l.o)
                              /usr/lib/gcc-cross/riscv64-linux-gnu/12/../../../../riscv64-linux-gnu/lib/libc.a(mbsrtowcs.o) (__mbsrtowcs_l)
/usr/lib/gcc-cross/riscv64-linux-gnu/12/../../../../riscv64-linux-gnu/lib/libc.a(clock_gettime.o)
                              /usr/lib/gcc-cross/riscv64-linux-gnu/12/../../../../riscv64-linux-gnu/lib/libc.a(malloc.o) (__clock_gettime)
/usr/lib/gcc-cross/riscv64-linux-gnu/12/../../../../riscv64-linux-gnu/lib/libc.a(_exit.o)
                              /usr/lib/gcc-cross/riscv64-linux-gnu/12/../../../../riscv64-linux-gnu/lib/libc.a(abort.o) (_exit)
/usr/lib/gcc-cross/riscv64-linux-gnu/12/../../../../riscv64-linux-gnu/lib/libc.a(getpid.o)
                              /usr/lib/gcc-cross/riscv64-linux-gnu/12/../../../../riscv64-linux-gnu/lib/libc.a(pthread_kill.o) (__getpid)
/usr/lib/gcc-cross/riscv64-linux-gnu/12/../../../../riscv64-linux-gnu/lib/libc.a(sysconf.o)
                              /usr/lib/gcc-cross/riscv64-linux-gnu/12/../../../../riscv64-linux-gnu/lib/libc.a(msort.o) (__sysconf)
/usr/lib/gcc-cross/riscv64-linux-gnu/12/../../../../riscv64-linux-gnu/lib/libc.a(sched_yield.o)
                              /usr/lib/gcc-cross/riscv64-linux-gnu/12/../../../../riscv64-linux-gnu/lib/libc.a(genops.o) (__sched_yield)
/usr/lib/gcc-cross/riscv64-linux-gnu/12/../../../../riscv64-linux-gnu/lib/libc.a(get_child_max.o)
                              /usr/lib/gcc-cross/riscv64-linux-gnu/12/../../../../riscv64-linux-gnu/lib/libc.a(sysconf.o) (__get_child_max)
/usr/lib/gcc-cross/riscv64-linux-gnu/12/../../../../riscv64-linux-gnu/lib/libc.a(environ.o)
                              /usr/lib/gcc-cross/riscv64-linux-gnu/12/../../../../riscv64-linux-gnu/lib/libc.a(libc-start.o) (__environ)
/usr/lib/gcc-cross/riscv64-linux-gnu/12/../../../../riscv64-linux-gnu/lib/libc.a(fstat64.o)
                              /usr/lib/gcc-cross/riscv64-linux-gnu/12/../../../../riscv64-linux-gnu/lib/libc.a(check_fds.o) (__fstat64)
/usr/lib/gcc-cross/riscv64-linux-gnu/12/../../../../riscv64-linux-gnu/lib/libc.a(fstatat64.o)
                              /usr/lib/gcc-cross/riscv64-linux-gnu/12/../../../../riscv64-linux-gnu/lib/libc.a(fstat64.o) (__fstatat64)
/usr/lib/gcc-cross/riscv64-linux-gnu/12/../../../../riscv64-linux-gnu/lib/libc.a(open64.o)
                              /usr/lib/gcc-cross/riscv64-linux-gnu/12/../../../../riscv64-linux-gnu/lib/libc.a(fileops.o) (__open)
/usr/lib/gcc-cross/riscv64-linux-gnu/12/../../../../riscv64-linux-gnu/lib/libc.a(read.o)
                              /usr/lib/gcc-cross/riscv64-linux-gnu/12/../../../../riscv64-linux-gnu/lib/libc.a(fileops.o) (__read)
/usr/lib/gcc-cross/riscv64-linux-gnu/12/../../../../riscv64-linux-gnu/lib/libc.a(write.o)
                              /usr/lib/gcc-cross/riscv64-linux-gnu/12/../../../../riscv64-linux-gnu/lib/libc.a(assert.o) (__libc_write)
/usr/lib/gcc-cross/riscv64-linux-gnu/12/../../../../riscv64-linux-gnu/lib/libc.a(lseek64.o)
                              /usr/lib/gcc-cross/riscv64-linux-gnu/12/../../../../riscv64-linux-gnu/lib/libc.a(fileops.o) (__lseek64)
/usr/lib/gcc-cross/riscv64-linux-gnu/12/../../../../riscv64-linux-gnu/lib/libc.a(getcwd.o)
                              /usr/lib/gcc-cross/riscv64-linux-gnu/12/../../../../riscv64-linux-gnu/lib/libc.a(dcigettext.o) (__getcwd)
/usr/lib/gcc-cross/riscv64-linux-gnu/12/../../../../riscv64-linux-gnu/lib/libc.a(close_nocancel.o)
                              /usr/lib/gcc-cross/riscv64-linux-gnu/12/../../../../riscv64-linux-gnu/lib/libc.a(loadmsgcat.o) (__close_nocancel)
/usr/lib/gcc-cross/riscv64-linux-gnu/12/../../../../riscv64-linux-gnu/lib/libc.a(fcntl_nocancel.o)
                              /usr/lib/gcc-cross/riscv64-linux-gnu/12/../../../../riscv64-linux-gnu/lib/libc.a(check_fds.o) (__fcntl64_nocancel)
/usr/lib/gcc-cross/riscv64-linux-gnu/12/../../../../riscv64-linux-gnu/lib/libc.a(open64_nocancel.o)
                              /usr/lib/gcc-cross/riscv64-linux-gnu/12/../../../../riscv64-linux-gnu/lib/libc.a(check_fds.o) (__open_nocancel)
/usr/lib/gcc-cross/riscv64-linux-gnu/12/../../../../riscv64-linux-gnu/lib/libc.a(read_nocancel.o)
                              /usr/lib/gcc-cross/riscv64-linux-gnu/12/../../../../riscv64-linux-gnu/lib/libc.a(loadmsgcat.o) (__read_nocancel)
/usr/lib/gcc-cross/riscv64-linux-gnu/12/../../../../riscv64-linux-gnu/lib/libc.a(write_nocancel.o)
                              /usr/lib/gcc-cross/riscv64-linux-gnu/12/../../../../riscv64-linux-gnu/lib/libc.a(fileops.o) (__write_nocancel)
/usr/lib/gcc-cross/riscv64-linux-gnu/12/../../../../riscv64-linux-gnu/lib/libc.a(getrlimit64.o)
                              /usr/lib/gcc-cross/riscv64-linux-gnu/12/../../../../riscv64-linux-gnu/lib/libc.a(sysconf.o) (__getrlimit)
/usr/lib/gcc-cross/riscv64-linux-gnu/12/../../../../riscv64-linux-gnu/lib/libc.a(brk.o)
                              /usr/lib/gcc-cross/riscv64-linux-gnu/12/../../../../riscv64-linux-gnu/lib/libc.a(malloc.o) (__curbrk)
/usr/lib/gcc-cross/riscv64-linux-gnu/12/../../../../riscv64-linux-gnu/lib/libc.a(sbrk.o)
                              /usr/lib/gcc-cross/riscv64-linux-gnu/12/../../../../riscv64-linux-gnu/lib/libc.a(libc-tls.o) (__sbrk)
/usr/lib/gcc-cross/riscv64-linux-gnu/12/../../../../riscv64-linux-gnu/lib/libc.a(getpagesize.o)
                              /usr/lib/gcc-cross/riscv64-linux-gnu/12/../../../../riscv64-linux-gnu/lib/libc.a(fileops.o) (__getpagesize)
/usr/lib/gcc-cross/riscv64-linux-gnu/12/../../../../riscv64-linux-gnu/lib/libc.a(getdtsz.o)
                              /usr/lib/gcc-cross/riscv64-linux-gnu/12/../../../../riscv64-linux-gnu/lib/libc.a(sysconf.o) (__getdtablesize)
/usr/lib/gcc-cross/riscv64-linux-gnu/12/../../../../riscv64-linux-gnu/lib/libc.a(mmap64.o)
                              /usr/lib/gcc-cross/riscv64-linux-gnu/12/../../../../riscv64-linux-gnu/lib/libc.a(fileops.o) (__mmap64)
/usr/lib/gcc-cross/riscv64-linux-gnu/12/../../../../riscv64-linux-gnu/lib/libc.a(munmap.o)
                              /usr/lib/gcc-cross/riscv64-linux-gnu/12/../../../../riscv64-linux-gnu/lib/libc.a(assert.o) (__munmap)
/usr/lib/gcc-cross/riscv64-linux-gnu/12/../../../../riscv64-linux-gnu/lib/libc.a(mprotect.o)
                              /usr/lib/gcc-cross/riscv64-linux-gnu/12/../../../../riscv64-linux-gnu/lib/libc.a(malloc.o) (__mprotect)
/usr/lib/gcc-cross/riscv64-linux-gnu/12/../../../../riscv64-linux-gnu/lib/libc.a(madvise.o)
                              /usr/lib/gcc-cross/riscv64-linux-gnu/12/../../../../riscv64-linux-gnu/lib/libc.a(malloc.o) (__madvise)
/usr/lib/gcc-cross/riscv64-linux-gnu/12/../../../../riscv64-linux-gnu/lib/libc.a(tsearch.o)
                              /usr/lib/gcc-cross/riscv64-linux-gnu/12/../../../../riscv64-linux-gnu/lib/libc.a(dcigettext.o) (__tsearch)
/usr/lib/gcc-cross/riscv64-linux-gnu/12/../../../../riscv64-linux-gnu/lib/libc.a(getsysstats.o)
                              /usr/lib/gcc-cross/riscv64-linux-gnu/12/../../../../riscv64-linux-gnu/lib/libc.a(malloc.o) (__get_nprocs_sched)
/usr/lib/gcc-cross/riscv64-linux-gnu/12/../../../../riscv64-linux-gnu/lib/libc.a(getclktck.o)
                              /usr/lib/gcc-cross/riscv64-linux-gnu/12/../../../../riscv64-linux-gnu/lib/libc.a(sysconf.o) (__getclktck)
/usr/lib/gcc-cross/riscv64-linux-gnu/12/../../../../riscv64-linux-gnu/lib/libc.a(getauxval.o)
                              /usr/lib/gcc-cross/riscv64-linux-gnu/12/../../../../riscv64-linux-gnu/lib/libc.a(sysconf.o) (__getauxval2)
/usr/lib/gcc-cross/riscv64-linux-gnu/12/../../../../riscv64-linux-gnu/lib/libc.a(init-misc.o)
                              /usr/lib/gcc-cross/riscv64-linux-gnu/12/../../../../riscv64-linux-gnu/lib/libc.a(assert.o) (__progname)
/usr/lib/gcc-cross/riscv64-linux-gnu/12/../../../../riscv64-linux-gnu/lib/libc.a(mremap.o)
                              /usr/lib/gcc-cross/riscv64-linux-gnu/12/../../../../riscv64-linux-gnu/lib/libc.a(fileops.o) (__mremap)
/usr/lib/gcc-cross/riscv64-linux-gnu/12/../../../../riscv64-linux-gnu/lib/libc.a(sysinfo.o)
                              /usr/lib/gcc-cross/riscv64-linux-gnu/12/../../../../riscv64-linux-gnu/lib/libc.a(getsysstats.o) (__sysinfo)
/usr/lib/gcc-cross/riscv64-linux-gnu/12/../../../../riscv64-linux-gnu/lib/libc.a(malloc-hugepages.o)
                              /usr/lib/gcc-cross/riscv64-linux-gnu/12/../../../../riscv64-linux-gnu/lib/libc.a(malloc.o) (__malloc_default_thp_pagesize)
/usr/lib/gcc-cross/riscv64-linux-gnu/12/../../../../riscv64-linux-gnu/lib/libc.a(stack_chk_fail.o)
                              /usr/lib/gcc-cross/riscv64-linux-gnu/12/../../../../riscv64-linux-gnu/lib/libc.a(dcigettext.o) (__stack_chk_fail)
/usr/lib/gcc-cross/riscv64-linux-gnu/12/../../../../riscv64-linux-gnu/lib/libc.a(fortify_fail.o)
                              /usr/lib/gcc-cross/riscv64-linux-gnu/12/../../../../riscv64-linux-gnu/lib/libc.a(stack_chk_fail.o) (__fortify_fail)
/usr/lib/gcc-cross/riscv64-linux-gnu/12/../../../../riscv64-linux-gnu/lib/libc.a(dl-debug.o)
                              /usr/lib/gcc-cross/riscv64-linux-gnu/12/../../../../riscv64-linux-gnu/lib/libc.a(libc-start.o) (_dl_debug_initialize)
/usr/lib/gcc-cross/riscv64-linux-gnu/12/../../../../riscv64-linux-gnu/lib/libc.a(dl-debug-symbols.o)
                              /usr/lib/gcc-cross/riscv64-linux-gnu/12/../../../../riscv64-linux-gnu/lib/libc.a(dl-debug.o) (_r_debug_extended)
/usr/lib/gcc-cross/riscv64-linux-gnu/12/../../../../riscv64-linux-gnu/lib/libc.a(dl-tls.o)
                              /usr/lib/gcc-cross/riscv64-linux-gnu/12/../../../../riscv64-linux-gnu/lib/libc.a(libc-tls.o) (_dl_tls_static_surplus_init)
/usr/lib/gcc-cross/riscv64-linux-gnu/12/../../../../riscv64-linux-gnu/lib/libc.a(dl-tls_init_tp.o)
                              /usr/lib/gcc-cross/riscv64-linux-gnu/12/../../../../riscv64-linux-gnu/lib/libc.a(libc-tls.o) (__tls_pre_init_tp)
/usr/lib/gcc-cross/riscv64-linux-gnu/12/../../../../riscv64-linux-gnu/lib/libc.a(dl-tunables.o)
                              /usr/lib/gcc-cross/riscv64-linux-gnu/12/../../../../riscv64-linux-gnu/lib/libc.a(libc-start.o) (__tunables_init)
/usr/lib/gcc-cross/riscv64-linux-gnu/12/../../../../riscv64-linux-gnu/lib/libc.a(dl-error.o)
                              /usr/lib/gcc-cross/riscv64-linux-gnu/12/../../../../riscv64-linux-gnu/lib/libc.a(dl-tls.o) (_dl_signal_error)
/usr/lib/gcc-cross/riscv64-linux-gnu/12/../../../../riscv64-linux-gnu/lib/libc.a(dl-profstub.o)
                              /usr/lib/gcc-cross/riscv64-linux-gnu/12/../../../../riscv64-linux-gnu/lib/libc.a(iofwide.o) (_dl_mcount_wrapper_check)
/usr/lib/gcc-cross/riscv64-linux-gnu/12/../../../../riscv64-linux-gnu/lib/libc.a(dl-support.o)
                              /usr/lib/gcc-cross/riscv64-linux-gnu/12/../../../../riscv64-linux-gnu/lib/libc.a(libc-start.o) (_dl_aux_init)
/usr/lib/gcc-cross/riscv64-linux-gnu/12/../../../../riscv64-linux-gnu/lib/libc.a(dl-sysdep.o)
                              /usr/lib/gcc-cross/riscv64-linux-gnu/12/../../../../riscv64-linux-gnu/lib/libc.a(libc-start.o) (_dl_discover_osversion)
/usr/lib/gcc-cross/riscv64-linux-gnu/12/../../../../riscv64-linux-gnu/lib/libc.a(enbl-secure.o)
                              /usr/lib/gcc-cross/riscv64-linux-gnu/12/../../../../riscv64-linux-gnu/lib/libc.a(libc-start.o) (__libc_init_secure)
/usr/lib/gcc-cross/riscv64-linux-gnu/12/../../../../riscv64-linux-gnu/lib/libc.a(libc_early_init.o)
                              /usr/lib/gcc-cross/riscv64-linux-gnu/12/../../../../riscv64-linux-gnu/lib/libc.a(libc-start.o) (__libc_early_init)
/usr/lib/gcc-cross/riscv64-linux-gnu/12/../../../../riscv64-linux-gnu/lib/libc.a(init-first.o)
                              /usr/lib/gcc-cross/riscv64-linux-gnu/12/../../../../riscv64-linux-gnu/lib/libc.a(libc-start.o) (__libc_init_first)
/usr/lib/gcc-cross/riscv64-linux-gnu/12/../../../../riscv64-linux-gnu/lib/libc.a(sysdep.o)
                              /usr/lib/gcc-cross/riscv64-linux-gnu/12/../../../../riscv64-linux-gnu/lib/libc.a(sched_yield.o) (__syscall_error)
/usr/lib/gcc-cross/riscv64-linux-gnu/12/../../../../riscv64-linux-gnu/lib/libc.a(gconv_open.o)
                              /usr/lib/gcc-cross/riscv64-linux-gnu/12/../../../../riscv64-linux-gnu/lib/libc.a(dcigettext.o) (__gconv_open)
/usr/lib/gcc-cross/riscv64-linux-gnu/12/../../../../riscv64-linux-gnu/lib/libc.a(gconv.o)
                              /usr/lib/gcc-cross/riscv64-linux-gnu/12/../../../../riscv64-linux-gnu/lib/libc.a(dcigettext.o) (__gconv)
/usr/lib/gcc-cross/riscv64-linux-gnu/12/../../../../riscv64-linux-gnu/lib/libc.a(gconv_close.o)
                              /usr/lib/gcc-cross/riscv64-linux-gnu/12/../../../../riscv64-linux-gnu/lib/libc.a(loadmsgcat.o) (__gconv_close)
/usr/lib/gcc-cross/riscv64-linux-gnu/12/../../../../riscv64-linux-gnu/lib/libc.a(gconv_db.o)
                              /usr/lib/gcc-cross/riscv64-linux-gnu/12/../../../../riscv64-linux-gnu/lib/libc.a(iofclose.o) (__gconv_release_step)
/usr/lib/gcc-cross/riscv64-linux-gnu/12/../../../../riscv64-linux-gnu/lib/libc.a(gconv_conf.o)
                              /usr/lib/gcc-cross/riscv64-linux-gnu/12/../../../../riscv64-linux-gnu/lib/libc.a(gconv_db.o) (__gconv_load_conf)
/usr/lib/gcc-cross/riscv64-linux-gnu/12/../../../../riscv64-linux-gnu/lib/libc.a(gconv_builtin.o)
                              /usr/lib/gcc-cross/riscv64-linux-gnu/12/../../../../riscv64-linux-gnu/lib/libc.a(gconv_db.o) (__gconv_get_builtin_trans)
/usr/lib/gcc-cross/riscv64-linux-gnu/12/../../../../riscv64-linux-gnu/lib/libc.a(gconv_simple.o)
                              /usr/lib/gcc-cross/riscv64-linux-gnu/12/../../../../riscv64-linux-gnu/lib/libc.a(wcsmbsload.o) (__gconv_btwoc_ascii)
/usr/lib/gcc-cross/riscv64-linux-gnu/12/../../../../riscv64-linux-gnu/lib/libc.a(gconv_trans.o)
                              /usr/lib/gcc-cross/riscv64-linux-gnu/12/../../../../riscv64-linux-gnu/lib/libc.a(gconv_simple.o) (__gconv_transliterate)
/usr/lib/gcc-cross/riscv64-linux-gnu/12/../../../../riscv64-linux-gnu/lib/libc.a(gconv_cache.o)
                              /usr/lib/gcc-cross/riscv64-linux-gnu/12/../../../../riscv64-linux-gnu/lib/libc.a(gconv_conf.o) (__gconv_load_cache)
/usr/lib/gcc-cross/riscv64-linux-gnu/12/../../../../riscv64-linux-gnu/lib/libc.a(gconv_dl.o)
                              /usr/lib/gcc-cross/riscv64-linux-gnu/12/../../../../riscv64-linux-gnu/lib/libc.a(gconv_db.o) (__gconv_find_shlib)
/usr/lib/gcc-cross/riscv64-linux-gnu/12/../../../../riscv64-linux-gnu/lib/libc.a(gconv_charset.o)
                              /usr/lib/gcc-cross/riscv64-linux-gnu/12/../../../../riscv64-linux-gnu/lib/libc.a(dcigettext.o) (__gconv_create_spec)
/usr/lib/gcc-cross/riscv64-linux-gnu/12/../../../../riscv64-linux-gnu/lib/libc.a(setlocale.o)
                              /usr/lib/gcc-cross/riscv64-linux-gnu/12/../../../../riscv64-linux-gnu/lib/libc.a(gconv_db.o) (_nl_locale_subfreeres)
/usr/lib/gcc-cross/riscv64-linux-gnu/12/../../../../riscv64-linux-gnu/lib/libc.a(findlocale.o)
                              /usr/lib/gcc-cross/riscv64-linux-gnu/12/../../../../riscv64-linux-gnu/lib/libc.a(setlocale.o) (_nl_find_locale)
/usr/lib/gcc-cross/riscv64-linux-gnu/12/../../../../riscv64-linux-gnu/lib/libc.a(loadlocale.o)
                              /usr/lib/gcc-cross/riscv64-linux-gnu/12/../../../../riscv64-linux-gnu/lib/libc.a(findlocale.o) (_nl_load_locale)
/usr/lib/gcc-cross/riscv64-linux-gnu/12/../../../../riscv64-linux-gnu/lib/libc.a(loadarchive.o)
                              /usr/lib/gcc-cross/riscv64-linux-gnu/12/../../../../riscv64-linux-gnu/lib/libc.a(findlocale.o) (_nl_load_locale_from_archive)
/usr/lib/gcc-cross/riscv64-linux-gnu/12/../../../../riscv64-linux-gnu/lib/libc.a(lc-ctype.o)
                              /usr/lib/gcc-cross/riscv64-linux-gnu/12/../../../../riscv64-linux-gnu/lib/libc.a(dcigettext.o) (_nl_current_LC_CTYPE)
/usr/lib/gcc-cross/riscv64-linux-gnu/12/../../../../riscv64-linux-gnu/lib/libc.a(C-ctype.o)
                              /usr/lib/gcc-cross/riscv64-linux-gnu/12/../../../../riscv64-linux-gnu/lib/libc.a(wcsmbsload.o) (_nl_C_LC_CTYPE)
/usr/lib/gcc-cross/riscv64-linux-gnu/12/../../../../riscv64-linux-gnu/lib/libc.a(SYS_libc.o)
                              /usr/lib/gcc-cross/riscv64-linux-gnu/12/../../../../riscv64-linux-gnu/lib/libc.a(assert.o) (_libc_intl_domainname)
/usr/lib/gcc-cross/riscv64-linux-gnu/12/../../../../riscv64-linux-gnu/lib/libc.a(C_name.o)
                              /usr/lib/gcc-cross/riscv64-linux-gnu/12/../../../../riscv64-linux-gnu/lib/libc.a(C-ctype.o) (_nl_C_codeset)
/usr/lib/gcc-cross/riscv64-linux-gnu/12/../../../../riscv64-linux-gnu/lib/libc.a(xlocale.o)
                              /usr/lib/gcc-cross/riscv64-linux-gnu/12/../../../../riscv64-linux-gnu/lib/libc.a(localealias.o) (_nl_C_locobj)
/usr/lib/gcc-cross/riscv64-linux-gnu/12/../../../../riscv64-linux-gnu/lib/libc.a(localename.o)
                              /usr/lib/gcc-cross/riscv64-linux-gnu/12/../../../../riscv64-linux-gnu/lib/libc.a(dcigettext.o) (__current_locale_name)
/usr/lib/gcc-cross/riscv64-linux-gnu/12/../../../../riscv64-linux-gnu/lib/libc.a(global-locale.o)
                              /usr/lib/gcc-cross/riscv64-linux-gnu/12/../../../../riscv64-linux-gnu/lib/libc.a(setlocale.o) (_nl_global_locale)
/usr/lib/gcc-cross/riscv64-linux-gnu/12/../../../../riscv64-linux-gnu/lib/libc.a(ctype-info.o)
                              /usr/lib/gcc-cross/riscv64-linux-gnu/12/../../../../riscv64-linux-gnu/lib/libc.a(libc_early_init.o) (__ctype_init)
/usr/lib/gcc-cross/riscv64-linux-gnu/12/../../../../riscv64-linux-gnu/lib/libc.a(__longjmp.o)
                              /usr/lib/gcc-cross/riscv64-linux-gnu/12/../../../../riscv64-linux-gnu/lib/libc.a(dl-error.o) (__longjmp)
/usr/lib/gcc-cross/riscv64-linux-gnu/12/../../../../riscv64-linux-gnu/lib/libc.a(sigaction.o)
                              /usr/lib/gcc-cross/riscv64-linux-gnu/12/../../../../riscv64-linux-gnu/lib/libc.a(abort.o) (__sigaction)
/usr/lib/gcc-cross/riscv64-linux-gnu/12/../../../../riscv64-linux-gnu/lib/libc.a(libc_sigaction.o)
                              /usr/lib/gcc-cross/riscv64-linux-gnu/12/../../../../riscv64-linux-gnu/lib/libc.a(sigaction.o) (__libc_sigaction)
/usr/lib/gcc-cross/riscv64-linux-gnu/12/../../../../riscv64-linux-gnu/lib/libc.a(qsort.o)
                              /usr/lib/gcc-cross/riscv64-linux-gnu/12/../../../../riscv64-linux-gnu/lib/libc.a(msort.o) (_quicksort)
/usr/lib/gcc-cross/riscv64-linux-gnu/12/../../../../riscv64-linux-gnu/lib/libc.a(setenv.o)
                              /usr/lib/gcc-cross/riscv64-linux-gnu/12/../../../../riscv64-linux-gnu/lib/libc.a(dl-support.o) (__unsetenv)
/usr/lib/gcc-cross/riscv64-linux-gnu/12/../../../../riscv64-linux-gnu/lib/libc.a(getrandom.o)
                              /usr/lib/gcc-cross/riscv64-linux-gnu/12/../../../../riscv64-linux-gnu/lib/libc.a(malloc.o) (__getrandom)
/usr/lib/gcc-cross/riscv64-linux-gnu/12/../../../../riscv64-linux-gnu/lib/libc.a(strtol.o)
                              /usr/lib/gcc-cross/riscv64-linux-gnu/12/../../../../riscv64-linux-gnu/lib/libc.a(sysconf.o) (strtol)
/usr/lib/gcc-cross/riscv64-linux-gnu/12/../../../../riscv64-linux-gnu/lib/libc.a(strtol_l.o)
                              /usr/lib/gcc-cross/riscv64-linux-gnu/12/../../../../riscv64-linux-gnu/lib/libc.a(strtol.o) (____strtol_l_internal)
/usr/lib/gcc-cross/riscv64-linux-gnu/12/../../../../riscv64-linux-gnu/lib/libc.a(fprintf.o)
                              /usr/lib/gcc-cross/riscv64-linux-gnu/12/../../../../riscv64-linux-gnu/lib/libc.a(malloc.o) (fprintf)
/usr/lib/gcc-cross/riscv64-linux-gnu/12/../../../../riscv64-linux-gnu/lib/libc.a(vfprintf-internal.o)
                              /usr/lib/gcc-cross/riscv64-linux-gnu/12/../../../../riscv64-linux-gnu/lib/libc.a(fxprintf.o) (__vfprintf_internal)
/usr/lib/gcc-cross/riscv64-linux-gnu/12/../../../../riscv64-linux-gnu/lib/libc.a(vfwprintf-internal.o)
                              /usr/lib/gcc-cross/riscv64-linux-gnu/12/../../../../riscv64-linux-gnu/lib/libc.a(fxprintf.o) (__vfwprintf_internal)
/usr/lib/gcc-cross/riscv64-linux-gnu/12/../../../../riscv64-linux-gnu/lib/libc.a(errlist.o)
                              /usr/lib/gcc-cross/riscv64-linux-gnu/12/../../../../riscv64-linux-gnu/lib/libc.a(vfprintf-internal.o) (__get_errname)
/usr/lib/gcc-cross/riscv64-linux-gnu/12/../../../../riscv64-linux-gnu/lib/libc.a(printf-parsemb.o)
                              /usr/lib/gcc-cross/riscv64-linux-gnu/12/../../../../riscv64-linux-gnu/lib/libc.a(vfprintf-internal.o) (__parse_one_specmb)
/usr/lib/gcc-cross/riscv64-linux-gnu/12/../../../../riscv64-linux-gnu/lib/libc.a(printf-parsewc.o)
                              /usr/lib/gcc-cross/riscv64-linux-gnu/12/../../../../riscv64-linux-gnu/lib/libc.a(vfwprintf-internal.o) (__parse_one_specwc)
/usr/lib/gcc-cross/riscv64-linux-gnu/12/../../../../riscv64-linux-gnu/lib/libc.a(filedoalloc.o)
                              /usr/lib/gcc-cross/riscv64-linux-gnu/12/../../../../riscv64-linux-gnu/lib/libc.a(fileops.o) (_IO_file_doallocate)
/usr/lib/gcc-cross/riscv64-linux-gnu/12/../../../../riscv64-linux-gnu/lib/libc.a(iofputs.o)
                              /usr/lib/gcc-cross/riscv64-linux-gnu/12/../../../../riscv64-linux-gnu/lib/libc.a(malloc.o) (_IO_fputs)
/usr/lib/gcc-cross/riscv64-linux-gnu/12/../../../../riscv64-linux-gnu/lib/libc.a(wfiledoalloc.o)
                              /usr/lib/gcc-cross/riscv64-linux-gnu/12/../../../../riscv64-linux-gnu/lib/libc.a(wfileops.o) (_IO_wfile_doallocate)
/usr/lib/gcc-cross/riscv64-linux-gnu/12/../../../../riscv64-linux-gnu/lib/libc.a(iofwrite.o)
                              /usr/lib/gcc-cross/riscv64-linux-gnu/12/../../../../riscv64-linux-gnu/lib/libc.a(malloc.o) (fwrite)
/usr/lib/gcc-cross/riscv64-linux-gnu/12/../../../../riscv64-linux-gnu/lib/libc.a(iogetdelim.o)
                              /usr/lib/gcc-cross/riscv64-linux-gnu/12/../../../../riscv64-linux-gnu/lib/libc.a(gconv_conf.o) (__getdelim)
/usr/lib/gcc-cross/riscv64-linux-gnu/12/../../../../riscv64-linux-gnu/lib/libc.a(iogetline.o)
                              /usr/lib/gcc-cross/riscv64-linux-gnu/12/../../../../riscv64-linux-gnu/lib/libc.a(iofgets_u.o) (_IO_getline)
/usr/lib/gcc-cross/riscv64-linux-gnu/12/../../../../riscv64-linux-gnu/lib/libc.a(iopadn.o)
                              /usr/lib/gcc-cross/riscv64-linux-gnu/12/../../../../riscv64-linux-gnu/lib/libc.a(vfprintf-internal.o) (_IO_padn)
/usr/lib/gcc-cross/riscv64-linux-gnu/12/../../../../riscv64-linux-gnu/lib/libc.a(iowpadn.o)
                              /usr/lib/gcc-cross/riscv64-linux-gnu/12/../../../../riscv64-linux-gnu/lib/libc.a(vfwprintf-internal.o) (_IO_wpadn)
/usr/lib/gcc-cross/riscv64-linux-gnu/12/../../../../riscv64-linux-gnu/lib/libc.a(wgenops.o)
                              /usr/lib/gcc-cross/riscv64-linux-gnu/12/../../../../riscv64-linux-gnu/lib/libc.a(fileops.o) (_IO_wsetb)
/usr/lib/gcc-cross/riscv64-linux-gnu/12/../../../../riscv64-linux-gnu/lib/libc.a(cancellation.o)
                              /usr/lib/gcc-cross/riscv64-linux-gnu/12/../../../../riscv64-linux-gnu/lib/libc.a(open64.o) (__pthread_enable_asynccancel)
/usr/lib/gcc-cross/riscv64-linux-gnu/12/../../../../riscv64-linux-gnu/lib/libc.a(futex-internal.o)
                              /usr/lib/gcc-cross/riscv64-linux-gnu/12/../../../../riscv64-linux-gnu/lib/libc.a(pthread_rwlock_rdlock.o) (__futex_abstimed_wait64)
/usr/lib/gcc-cross/riscv64-linux-gnu/12/../../../../riscv64-linux-gnu/lib/libc.a(pthread_mutex_conf.o)
                              /usr/lib/gcc-cross/riscv64-linux-gnu/12/../../../../riscv64-linux-gnu/lib/libc.a(libc_early_init.o) (__pthread_tunables_init)
/usr/lib/gcc-cross/riscv64-linux-gnu/12/../../../../riscv64-linux-gnu/lib/libc.a(pthread_mutex_lock.o)
                              /usr/lib/gcc-cross/riscv64-linux-gnu/12/../../../../riscv64-linux-gnu/lib/libc.a(dl-tls.o) (__pthread_mutex_lock)
/usr/lib/gcc-cross/riscv64-linux-gnu/12/../../../../riscv64-linux-gnu/lib/libc.a(pthread_mutex_unlock.o)
                              /usr/lib/gcc-cross/riscv64-linux-gnu/12/../../../../riscv64-linux-gnu/lib/libc.a(dl-tls.o) (__pthread_mutex_unlock)
/usr/lib/gcc-cross/riscv64-linux-gnu/12/../../../../riscv64-linux-gnu/lib/libc.a(pthread_once.o)
                              /usr/lib/gcc-cross/riscv64-linux-gnu/12/../../../../riscv64-linux-gnu/lib/libc.a(gconv_conf.o) (__pthread_once)
/usr/lib/gcc-cross/riscv64-linux-gnu/12/../../../../riscv64-linux-gnu/lib/libc.a(tpp.o)
                              /usr/lib/gcc-cross/riscv64-linux-gnu/12/../../../../riscv64-linux-gnu/lib/libc.a(pthread_mutex_lock.o) (__pthread_tpp_change_priority)
/usr/lib/gcc-cross/riscv64-linux-gnu/12/../../../../riscv64-linux-gnu/lib/libc.a(vars.o)
                              /usr/lib/gcc-cross/riscv64-linux-gnu/12/../../../../riscv64-linux-gnu/lib/libc.a(libc_early_init.o) (__default_pthread_attr)
/usr/lib/gcc-cross/riscv64-linux-gnu/12/../../../../riscv64-linux-gnu/lib/libc.a(scratch_buffer_grow_preserve.o)
                              /usr/lib/gcc-cross/riscv64-linux-gnu/12/../../../../riscv64-linux-gnu/lib/libc.a(vfprintf-internal.o) (__libc_scratch_buffer_grow_preserve)
/usr/lib/gcc-cross/riscv64-linux-gnu/12/../../../../riscv64-linux-gnu/lib/libc.a(scratch_buffer_set_array_size.o)
                              /usr/lib/gcc-cross/riscv64-linux-gnu/12/../../../../riscv64-linux-gnu/lib/libc.a(vfprintf-internal.o) (__libc_scratch_buffer_set_array_size)
/usr/lib/gcc-cross/riscv64-linux-gnu/12/../../../../riscv64-linux-gnu/lib/libc.a(strndup.o)
                              /usr/lib/gcc-cross/riscv64-linux-gnu/12/../../../../riscv64-linux-gnu/lib/libc.a(findlocale.o) (__strndup)
/usr/lib/gcc-cross/riscv64-linux-gnu/12/../../../../riscv64-linux-gnu/lib/libc.a(_strerror.o)
                              /usr/lib/gcc-cross/riscv64-linux-gnu/12/../../../../riscv64-linux-gnu/lib/libc.a(dl-error.o) (__strerror_r)
/usr/lib/gcc-cross/riscv64-linux-gnu/12/../../../../riscv64-linux-gnu/lib/libc.a(strnlen.o)
                              /usr/lib/gcc-cross/riscv64-linux-gnu/12/../../../../riscv64-linux-gnu/lib/libc.a(strstr.o) (__strnlen)
/usr/lib/gcc-cross/riscv64-linux-gnu/12/../../../../riscv64-linux-gnu/lib/libc.a(strrchr.o)
                              /usr/lib/gcc-cross/riscv64-linux-gnu/12/../../../../riscv64-linux-gnu/lib/libc.a(init-misc.o) (strrchr)
/usr/lib/gcc-cross/riscv64-linux-gnu/12/../../../../riscv64-linux-gnu/lib/libc.a(strtok_r.o)
                              /usr/lib/gcc-cross/riscv64-linux-gnu/12/../../../../riscv64-linux-gnu/lib/libc.a(gconv_conf.o) (__strtok_r)
/usr/lib/gcc-cross/riscv64-linux-gnu/12/../../../../riscv64-linux-gnu/lib/libc.a(memchr.o)
                              /usr/lib/gcc-cross/riscv64-linux-gnu/12/../../../../riscv64-linux-gnu/lib/libc.a(rawmemchr.o) (memchr)
/usr/lib/gcc-cross/riscv64-linux-gnu/12/../../../../riscv64-linux-gnu/lib/libc.a(memmem.o)
                              /usr/lib/gcc-cross/riscv64-linux-gnu/12/../../../../riscv64-linux-gnu/lib/libc.a(findlocale.o) (__memmem)
/usr/lib/gcc-cross/riscv64-linux-gnu/12/../../../../riscv64-linux-gnu/lib/libc.a(argz-ctsep.o)
                              /usr/lib/gcc-cross/riscv64-linux-gnu/12/../../../../riscv64-linux-gnu/lib/libc.a(setlocale.o) (__argz_create_sep)
/usr/lib/gcc-cross/riscv64-linux-gnu/12/../../../../riscv64-linux-gnu/lib/libc.a(argz-addsep.o)
                              /usr/lib/gcc-cross/riscv64-linux-gnu/12/../../../../riscv64-linux-gnu/lib/libc.a(setlocale.o) (__argz_add_sep)
/usr/lib/gcc-cross/riscv64-linux-gnu/12/../../../../riscv64-linux-gnu/lib/libc.a(wcslen.o)
                              /usr/lib/gcc-cross/riscv64-linux-gnu/12/../../../../riscv64-linux-gnu/lib/libc.a(vfwprintf-internal.o) (__wcslen)
/usr/lib/gcc-cross/riscv64-linux-gnu/12/../../../../riscv64-linux-gnu/lib/libc.a(wmemcpy.o)
                              /usr/lib/gcc-cross/riscv64-linux-gnu/12/../../../../riscv64-linux-gnu/lib/libc.a(wgenops.o) (__wmemcpy)
/usr/lib/gcc-cross/riscv64-linux-gnu/12/../../../../riscv64-linux-gnu/lib/libc.a(wmemmove.o)
                              /usr/lib/gcc-cross/riscv64-linux-gnu/12/../../../../riscv64-linux-gnu/lib/libc.a(vfwprintf-internal.o) (__wmemmove)
/usr/lib/gcc-cross/riscv64-linux-gnu/12/../../../../riscv64-linux-gnu/lib/libc.a(btowc.o)
                              /usr/lib/gcc-cross/riscv64-linux-gnu/12/../../../../riscv64-linux-gnu/lib/libc.a(vfwprintf-internal.o) (__btowc)
/usr/lib/gcc-cross/riscv64-linux-gnu/12/../../../../riscv64-linux-gnu/lib/libc.a(wcrtomb.o)
                              /usr/lib/gcc-cross/riscv64-linux-gnu/12/../../../../riscv64-linux-gnu/lib/libc.a(vfprintf-internal.o) (__wcrtomb)
/usr/lib/gcc-cross/riscv64-linux-gnu/12/../../../../riscv64-linux-gnu/lib/libc.a(wcsrtombs.o)
                              /usr/lib/gcc-cross/riscv64-linux-gnu/12/../../../../riscv64-linux-gnu/lib/libc.a(vfprintf-internal.o) (__wcsrtombs)
/usr/lib/gcc-cross/riscv64-linux-gnu/12/../../../../riscv64-linux-gnu/lib/libc.a(wcsnlen.o)
                              /usr/lib/gcc-cross/riscv64-linux-gnu/12/../../../../riscv64-linux-gnu/lib/libc.a(vfwprintf-internal.o) (__wcsnlen)
/usr/lib/gcc-cross/riscv64-linux-gnu/12/../../../../riscv64-linux-gnu/lib/libc.a(wcschrnul.o)
                              /usr/lib/gcc-cross/riscv64-linux-gnu/12/../../../../riscv64-linux-gnu/lib/libc.a(vfwprintf-internal.o) (__wcschrnul)
/usr/lib/gcc-cross/riscv64-linux-gnu/12/../../../../riscv64-linux-gnu/lib/libc.a(opendir.o)
                              /usr/lib/gcc-cross/riscv64-linux-gnu/12/../../../../riscv64-linux-gnu/lib/libc.a(getsysstats.o) (__opendir)
/usr/lib/gcc-cross/riscv64-linux-gnu/12/../../../../riscv64-linux-gnu/lib/libc.a(closedir.o)
                              /usr/lib/gcc-cross/riscv64-linux-gnu/12/../../../../riscv64-linux-gnu/lib/libc.a(getcwd.o) (__closedir)
/usr/lib/gcc-cross/riscv64-linux-gnu/12/../../../../riscv64-linux-gnu/lib/libc.a(rewinddir.o)
                              /usr/lib/gcc-cross/riscv64-linux-gnu/12/../../../../riscv64-linux-gnu/lib/libc.a(getcwd.o) (__rewinddir)
/usr/lib/gcc-cross/riscv64-linux-gnu/12/../../../../riscv64-linux-gnu/lib/libc.a(getdents64.o)
                              /usr/lib/gcc-cross/riscv64-linux-gnu/12/../../../../riscv64-linux-gnu/lib/libc.a(malloc-hugepages.o) (__getdents64)
/usr/lib/gcc-cross/riscv64-linux-gnu/12/../../../../riscv64-linux-gnu/lib/libc.a(readdir64.o)
                              /usr/lib/gcc-cross/riscv64-linux-gnu/12/../../../../riscv64-linux-gnu/lib/libc.a(getcwd.o) (__readdir64)
/usr/lib/gcc-cross/riscv64-linux-gnu/12/../../../../riscv64-linux-gnu/lib/libc.a(fdopendir.o)
                              /usr/lib/gcc-cross/riscv64-linux-gnu/12/../../../../riscv64-linux-gnu/lib/libc.a(getcwd.o) (__fdopendir)
/usr/lib/gcc-cross/riscv64-linux-gnu/12/../../../../riscv64-linux-gnu/lib/libc.a(uname.o)
                              /usr/lib/gcc-cross/riscv64-linux-gnu/12/../../../../riscv64-linux-gnu/lib/libc.a(dl-sysdep.o) (__uname)
/usr/lib/gcc-cross/riscv64-linux-gnu/12/../../../../riscv64-linux-gnu/lib/libc.a(getuid.o)
                              /usr/lib/gcc-cross/riscv64-linux-gnu/12/../../../../riscv64-linux-gnu/lib/libc.a(enbl-secure.o) (__getuid)
/usr/lib/gcc-cross/riscv64-linux-gnu/12/../../../../riscv64-linux-gnu/lib/libc.a(geteuid.o)
                              /usr/lib/gcc-cross/riscv64-linux-gnu/12/../../../../riscv64-linux-gnu/lib/libc.a(enbl-secure.o) (__geteuid)
/usr/lib/gcc-cross/riscv64-linux-gnu/12/../../../../riscv64-linux-gnu/lib/libc.a(getgid.o)
                              /usr/lib/gcc-cross/riscv64-linux-gnu/12/../../../../riscv64-linux-gnu/lib/libc.a(enbl-secure.o) (__getgid)
/usr/lib/gcc-cross/riscv64-linux-gnu/12/../../../../riscv64-linux-gnu/lib/libc.a(getegid.o)
                              /usr/lib/gcc-cross/riscv64-linux-gnu/12/../../../../riscv64-linux-gnu/lib/libc.a(enbl-secure.o) (__getegid)
/usr/lib/gcc-cross/riscv64-linux-gnu/12/../../../../riscv64-linux-gnu/lib/libc.a(sched_getp.o)
                              /usr/lib/gcc-cross/riscv64-linux-gnu/12/../../../../riscv64-linux-gnu/lib/libc.a(tpp.o) (__sched_getparam)
/usr/lib/gcc-cross/riscv64-linux-gnu/12/../../../../riscv64-linux-gnu/lib/libc.a(sched_sets.o)
                              /usr/lib/gcc-cross/riscv64-linux-gnu/12/../../../../riscv64-linux-gnu/lib/libc.a(tpp.o) (__sched_setscheduler)
/usr/lib/gcc-cross/riscv64-linux-gnu/12/../../../../riscv64-linux-gnu/lib/libc.a(sched_gets.o)
                              /usr/lib/gcc-cross/riscv64-linux-gnu/12/../../../../riscv64-linux-gnu/lib/libc.a(tpp.o) (__sched_getscheduler)
/usr/lib/gcc-cross/riscv64-linux-gnu/12/../../../../riscv64-linux-gnu/lib/libc.a(sched_primax.o)
                              /usr/lib/gcc-cross/riscv64-linux-gnu/12/../../../../riscv64-linux-gnu/lib/libc.a(tpp.o) (__sched_get_priority_max)
/usr/lib/gcc-cross/riscv64-linux-gnu/12/../../../../riscv64-linux-gnu/lib/libc.a(sched_primin.o)
                              /usr/lib/gcc-cross/riscv64-linux-gnu/12/../../../../riscv64-linux-gnu/lib/libc.a(tpp.o) (__sched_get_priority_min)
/usr/lib/gcc-cross/riscv64-linux-gnu/12/../../../../riscv64-linux-gnu/lib/libc.a(sched_cpucount.o)
                              /usr/lib/gcc-cross/riscv64-linux-gnu/12/../../../../riscv64-linux-gnu/lib/libc.a(getsysstats.o) (__sched_cpucount)
/usr/lib/gcc-cross/riscv64-linux-gnu/12/../../../../riscv64-linux-gnu/lib/libc.a(lstat64.o)
                              /usr/lib/gcc-cross/riscv64-linux-gnu/12/../../../../riscv64-linux-gnu/lib/libc.a(getcwd.o) (__lstat64)
/usr/lib/gcc-cross/riscv64-linux-gnu/12/../../../../riscv64-linux-gnu/lib/libc.a(openat64.o)
                              /usr/lib/gcc-cross/riscv64-linux-gnu/12/../../../../riscv64-linux-gnu/lib/libc.a(getcwd.o) (__openat64)
/usr/lib/gcc-cross/riscv64-linux-gnu/12/../../../../riscv64-linux-gnu/lib/libc.a(isatty.o)
                              /usr/lib/gcc-cross/riscv64-linux-gnu/12/../../../../riscv64-linux-gnu/lib/libc.a(filedoalloc.o) (__isatty)
/usr/lib/gcc-cross/riscv64-linux-gnu/12/../../../../riscv64-linux-gnu/lib/libc.a(openat64_nocancel.o)
                              /usr/lib/gcc-cross/riscv64-linux-gnu/12/../../../../riscv64-linux-gnu/lib/libc.a(opendir.o) (__openat_nocancel)
/usr/lib/gcc-cross/riscv64-linux-gnu/12/../../../../riscv64-linux-gnu/lib/libc.a(pread64_nocancel.o)
                              /usr/lib/gcc-cross/riscv64-linux-gnu/12/../../../../riscv64-linux-gnu/lib/libc.a(malloc-hugepages.o) (__pread64_nocancel)
/usr/lib/gcc-cross/riscv64-linux-gnu/12/../../../../riscv64-linux-gnu/lib/libc.a(tcgetattr.o)
                              /usr/lib/gcc-cross/riscv64-linux-gnu/12/../../../../riscv64-linux-gnu/lib/libc.a(isatty.o) (__tcgetattr)
/usr/lib/gcc-cross/riscv64-linux-gnu/12/../../../../riscv64-linux-gnu/lib/libc.a(single_threaded.o)
                              /usr/lib/gcc-cross/riscv64-linux-gnu/12/../../../../riscv64-linux-gnu/lib/libc.a(libc_early_init.o) (__libc_single_threaded)
/usr/lib/gcc-cross/riscv64-linux-gnu/12/../../../../riscv64-linux-gnu/lib/libc.a(wctrans.o)
                              /usr/lib/gcc-cross/riscv64-linux-gnu/12/../../../../riscv64-linux-gnu/lib/libc.a(vfprintf-internal.o) (__wctrans)
/usr/lib/gcc-cross/riscv64-linux-gnu/12/../../../../riscv64-linux-gnu/lib/libc.a(towctrans.o)
                              /usr/lib/gcc-cross/riscv64-linux-gnu/12/../../../../riscv64-linux-gnu/lib/libc.a(vfprintf-internal.o) (__towctrans)
/usr/lib/gcc-cross/riscv64-linux-gnu/12/../../../../riscv64-linux-gnu/lib/libc.a(readonly-area.o)
                              /usr/lib/gcc-cross/riscv64-linux-gnu/12/../../../../riscv64-linux-gnu/lib/libc.a(vfprintf-internal.o) (__readonly_area)
/usr/lib/gcc-cross/riscv64-linux-gnu/12/../../../../riscv64-linux-gnu/lib/libc.a(dl-exception.o)
                              /usr/lib/gcc-cross/riscv64-linux-gnu/12/../../../../riscv64-linux-gnu/lib/libc.a(dl-error.o) (_dl_exception_create)
/usr/lib/gcc-cross/riscv64-linux-gnu/12/../../../../riscv64-linux-gnu/lib/libc.a(dl-load.o)
                              /usr/lib/gcc-cross/riscv64-linux-gnu/12/../../../../riscv64-linux-gnu/lib/libc.a(dl-support.o) (_dl_init_paths)
/usr/lib/gcc-cross/riscv64-linux-gnu/12/../../../../riscv64-linux-gnu/lib/libc.a(dl-lookup.o)
                              /usr/lib/gcc-cross/riscv64-linux-gnu/12/../../../../riscv64-linux-gnu/lib/libc.a(dl-support.o) (_dl_lookup_symbol_x)
/usr/lib/gcc-cross/riscv64-linux-gnu/12/../../../../riscv64-linux-gnu/lib/libc.a(dl-minimal-malloc.o)
                              /usr/lib/gcc-cross/riscv64-linux-gnu/12/../../../../riscv64-linux-gnu/lib/libc.a(dl-tunables.o) (__minimal_malloc)
/usr/lib/gcc-cross/riscv64-linux-gnu/12/../../../../riscv64-linux-gnu/lib/libc.a(dl-misc.o)
                              /usr/lib/gcc-cross/riscv64-linux-gnu/12/../../../../riscv64-linux-gnu/lib/libc.a(dl-load.o) (_dl_name_match_p)
/usr/lib/gcc-cross/riscv64-linux-gnu/12/../../../../riscv64-linux-gnu/lib/libc.a(dl-object.o)
                              /usr/lib/gcc-cross/riscv64-linux-gnu/12/../../../../riscv64-linux-gnu/lib/libc.a(dl-support.o) (_dl_add_to_namespace_list)
/usr/lib/gcc-cross/riscv64-linux-gnu/12/../../../../riscv64-linux-gnu/lib/libc.a(dl-origin.o)
                              /usr/lib/gcc-cross/riscv64-linux-gnu/12/../../../../riscv64-linux-gnu/lib/libc.a(dl-support.o) (_dl_get_origin)
/usr/lib/gcc-cross/riscv64-linux-gnu/12/../../../../riscv64-linux-gnu/lib/libc.a(dl-printf.o)
                              /usr/lib/gcc-cross/riscv64-linux-gnu/12/../../../../riscv64-linux-gnu/lib/libc.a(dl-support.o) (_dl_debug_printf)
/usr/lib/gcc-cross/riscv64-linux-gnu/12/../../../../riscv64-linux-gnu/lib/libc.a(dl-profile.o)
                              /usr/lib/gcc-cross/riscv64-linux-gnu/12/../../../../riscv64-linux-gnu/lib/libc.a(dl-profstub.o) (_dl_mcount)
/usr/lib/gcc-cross/riscv64-linux-gnu/12/../../../../riscv64-linux-gnu/lib/libc.a(dl-reloc.o)
                              /usr/lib/gcc-cross/riscv64-linux-gnu/12/../../../../riscv64-linux-gnu/lib/libc.a(dl-support.o) (_dl_protect_relro)
/usr/lib/gcc-cross/riscv64-linux-gnu/12/../../../../riscv64-linux-gnu/lib/libc.a(dl-scope.o)
                              /usr/lib/gcc-cross/riscv64-linux-gnu/12/../../../../riscv64-linux-gnu/lib/libc.a(dl-lookup.o) (_dl_scope_free)
/usr/lib/gcc-cross/riscv64-linux-gnu/12/../../../../riscv64-linux-gnu/lib/libc.a(dl-setup_hash.o)
                              /usr/lib/gcc-cross/riscv64-linux-gnu/12/../../../../riscv64-linux-gnu/lib/libc.a(dl-support.o) (_dl_setup_hash)
/usr/lib/gcc-cross/riscv64-linux-gnu/12/../../../../riscv64-linux-gnu/lib/libc.a(dl-thread_gscope_wait.o)
                              /usr/lib/gcc-cross/riscv64-linux-gnu/12/../../../../riscv64-linux-gnu/lib/libc.a(dl-scope.o) (__thread_gscope_wait)
/usr/lib/gcc-cross/riscv64-linux-gnu/12/../../../../riscv64-linux-gnu/lib/libc.a(dl-trampoline.o)
                              /usr/lib/gcc-cross/riscv64-linux-gnu/12/../../../../riscv64-linux-gnu/lib/libc.a(dl-reloc.o) (_dl_runtime_resolve)
/usr/lib/gcc-cross/riscv64-linux-gnu/12/../../../../riscv64-linux-gnu/lib/libc.a(dl-cache.o)
                              /usr/lib/gcc-cross/riscv64-linux-gnu/12/../../../../riscv64-linux-gnu/lib/libc.a(dl-load.o) (_dl_load_cache_lookup)
/usr/lib/gcc-cross/riscv64-linux-gnu/12/../../../../riscv64-linux-gnu/lib/libc.a(dl-libc.o)
                              /usr/lib/gcc-cross/riscv64-linux-gnu/12/../../../../riscv64-linux-gnu/lib/libc.a(gconv_dl.o) (__libc_dlopen_mode)
/usr/lib/gcc-cross/riscv64-linux-gnu/12/../../../../riscv64-linux-gnu/lib/libc.a(lc-numeric.o)
                              /usr/lib/gcc-cross/riscv64-linux-gnu/12/../../../../riscv64-linux-gnu/lib/libc.a(vfprintf-internal.o) (_nl_current_LC_NUMERIC)
/usr/lib/gcc-cross/riscv64-linux-gnu/12/../../../../riscv64-linux-gnu/lib/libc.a(C-messages.o)
                              /usr/lib/gcc-cross/riscv64-linux-gnu/12/../../../../riscv64-linux-gnu/lib/libc.a(xlocale.o) (_nl_C_LC_MESSAGES)
/usr/lib/gcc-cross/riscv64-linux-gnu/12/../../../../riscv64-linux-gnu/lib/libc.a(C-monetary.o)
                              /usr/lib/gcc-cross/riscv64-linux-gnu/12/../../../../riscv64-linux-gnu/lib/libc.a(xlocale.o) (_nl_C_LC_MONETARY)
/usr/lib/gcc-cross/riscv64-linux-gnu/12/../../../../riscv64-linux-gnu/lib/libc.a(C-numeric.o)
                              /usr/lib/gcc-cross/riscv64-linux-gnu/12/../../../../riscv64-linux-gnu/lib/libc.a(xlocale.o) (_nl_C_LC_NUMERIC)
/usr/lib/gcc-cross/riscv64-linux-gnu/12/../../../../riscv64-linux-gnu/lib/libc.a(C-time.o)
                              /usr/lib/gcc-cross/riscv64-linux-gnu/12/../../../../riscv64-linux-gnu/lib/libc.a(xlocale.o) (_nl_C_LC_TIME)
/usr/lib/gcc-cross/riscv64-linux-gnu/12/../../../../riscv64-linux-gnu/lib/libc.a(C-paper.o)
                              /usr/lib/gcc-cross/riscv64-linux-gnu/12/../../../../riscv64-linux-gnu/lib/libc.a(xlocale.o) (_nl_C_LC_PAPER)
/usr/lib/gcc-cross/riscv64-linux-gnu/12/../../../../riscv64-linux-gnu/lib/libc.a(C-name.o)
                              /usr/lib/gcc-cross/riscv64-linux-gnu/12/../../../../riscv64-linux-gnu/lib/libc.a(xlocale.o) (_nl_C_LC_NAME)
/usr/lib/gcc-cross/riscv64-linux-gnu/12/../../../../riscv64-linux-gnu/lib/libc.a(C-address.o)
                              /usr/lib/gcc-cross/riscv64-linux-gnu/12/../../../../riscv64-linux-gnu/lib/libc.a(xlocale.o) (_nl_C_LC_ADDRESS)
/usr/lib/gcc-cross/riscv64-linux-gnu/12/../../../../riscv64-linux-gnu/lib/libc.a(C-telephone.o)
                              /usr/lib/gcc-cross/riscv64-linux-gnu/12/../../../../riscv64-linux-gnu/lib/libc.a(xlocale.o) (_nl_C_LC_TELEPHONE)
/usr/lib/gcc-cross/riscv64-linux-gnu/12/../../../../riscv64-linux-gnu/lib/libc.a(C-measurement.o)
                              /usr/lib/gcc-cross/riscv64-linux-gnu/12/../../../../riscv64-linux-gnu/lib/libc.a(xlocale.o) (_nl_C_LC_MEASUREMENT)
/usr/lib/gcc-cross/riscv64-linux-gnu/12/../../../../riscv64-linux-gnu/lib/libc.a(C-identification.o)
                              /usr/lib/gcc-cross/riscv64-linux-gnu/12/../../../../riscv64-linux-gnu/lib/libc.a(xlocale.o) (_nl_C_LC_IDENTIFICATION)
/usr/lib/gcc-cross/riscv64-linux-gnu/12/../../../../riscv64-linux-gnu/lib/libc.a(C-collate.o)
                              /usr/lib/gcc-cross/riscv64-linux-gnu/12/../../../../riscv64-linux-gnu/lib/libc.a(xlocale.o) (_nl_C_LC_COLLATE)
/usr/lib/gcc-cross/riscv64-linux-gnu/12/../../../../riscv64-linux-gnu/lib/libc.a(_itoa.o)
                              /usr/lib/gcc-cross/riscv64-linux-gnu/12/../../../../riscv64-linux-gnu/lib/libc.a(vfprintf-internal.o) (_itoa_word)
/usr/lib/gcc-cross/riscv64-linux-gnu/12/../../../../riscv64-linux-gnu/lib/libc.a(itoa-digits.o)
                              /usr/lib/gcc-cross/riscv64-linux-gnu/12/../../../../riscv64-linux-gnu/lib/libc.a(dl-reloc.o) (_itoa_lower_digits)
/usr/lib/gcc-cross/riscv64-linux-gnu/12/../../../../riscv64-linux-gnu/lib/libc.a(itoa-udigits.o)
                              /usr/lib/gcc-cross/riscv64-linux-gnu/12/../../../../riscv64-linux-gnu/lib/libc.a(_itoa.o) (_itoa_upper_digits)
/usr/lib/gcc-cross/riscv64-linux-gnu/12/../../../../riscv64-linux-gnu/lib/libc.a(itowa-digits.o)
                              /usr/lib/gcc-cross/riscv64-linux-gnu/12/../../../../riscv64-linux-gnu/lib/libc.a(vfwprintf-internal.o) (_itowa_upper_digits)
/usr/lib/gcc-cross/riscv64-linux-gnu/12/../../../../riscv64-linux-gnu/lib/libc.a(printf_fp.o)
                              /usr/lib/gcc-cross/riscv64-linux-gnu/12/../../../../riscv64-linux-gnu/lib/libc.a(vfprintf-internal.o) (__printf_fp)
/usr/lib/gcc-cross/riscv64-linux-gnu/12/../../../../riscv64-linux-gnu/lib/libc.a(reg-printf.o)
                              /usr/lib/gcc-cross/riscv64-linux-gnu/12/../../../../riscv64-linux-gnu/lib/libc.a(vfprintf-internal.o) (__printf_function_table)
/usr/lib/gcc-cross/riscv64-linux-gnu/12/../../../../riscv64-linux-gnu/lib/libc.a(printf_fphex.o)
                              /usr/lib/gcc-cross/riscv64-linux-gnu/12/../../../../riscv64-linux-gnu/lib/libc.a(vfprintf-internal.o) (__printf_fphex)
/usr/lib/gcc-cross/riscv64-linux-gnu/12/../../../../riscv64-linux-gnu/lib/libc.a(reg-modifier.o)
                              /usr/lib/gcc-cross/riscv64-linux-gnu/12/../../../../riscv64-linux-gnu/lib/libc.a(printf-parsemb.o) (__handle_registered_modifier_mb)
/usr/lib/gcc-cross/riscv64-linux-gnu/12/../../../../riscv64-linux-gnu/lib/libc.a(reg-type.o)
                              /usr/lib/gcc-cross/riscv64-linux-gnu/12/../../../../riscv64-linux-gnu/lib/libc.a(vfprintf-internal.o) (__printf_va_arg_table)
/usr/lib/gcc-cross/riscv64-linux-gnu/12/../../../../riscv64-linux-gnu/lib/libc.a(snprintf.o)
                              /usr/lib/gcc-cross/riscv64-linux-gnu/12/../../../../riscv64-linux-gnu/lib/libc.a(_strerror.o) (__snprintf)
/usr/lib/gcc-cross/riscv64-linux-gnu/12/../../../../riscv64-linux-gnu/lib/libc.a(funlockfile.o)
                              /usr/lib/gcc-cross/riscv64-linux-gnu/12/../../../../riscv64-linux-gnu/lib/libc.a(vfprintf-internal.o) (_IO_funlockfile)
/usr/lib/gcc-cross/riscv64-linux-gnu/12/../../../../riscv64-linux-gnu/lib/libc.a(vsnprintf.o)
                              /usr/lib/gcc-cross/riscv64-linux-gnu/12/../../../../riscv64-linux-gnu/lib/libc.a(snprintf.o) (__vsnprintf_internal)
/usr/lib/gcc-cross/riscv64-linux-gnu/12/../../../../riscv64-linux-gnu/lib/libc.a(cleanup_compat.o)
                              /usr/lib/gcc-cross/riscv64-linux-gnu/12/../../../../riscv64-linux-gnu/lib/libc.a(pthread_once.o) (__pthread_cleanup_push)
/usr/lib/gcc-cross/riscv64-linux-gnu/12/../../../../riscv64-linux-gnu/lib/libc.a(nptl-stack.o)
                              /usr/lib/gcc-cross/riscv64-linux-gnu/12/../../../../riscv64-linux-gnu/lib/libc.a(pthread_mutex_conf.o) (__nptl_stack_cache_maxsize)
/usr/lib/gcc-cross/riscv64-linux-gnu/12/../../../../riscv64-linux-gnu/lib/libc.a(strspn.o)
                              /usr/lib/gcc-cross/riscv64-linux-gnu/12/../../../../riscv64-linux-gnu/lib/libc.a(strtok_r.o) (strspn)
/usr/lib/gcc-cross/riscv64-linux-gnu/12/../../../../riscv64-linux-gnu/lib/libc.a(strsep.o)
                              /usr/lib/gcc-cross/riscv64-linux-gnu/12/../../../../riscv64-linux-gnu/lib/libc.a(dl-load.o) (__strsep)
/usr/lib/gcc-cross/riscv64-linux-gnu/12/../../../../riscv64-linux-gnu/lib/libc.a(wmemchr.o)
                              /usr/lib/gcc-cross/riscv64-linux-gnu/12/../../../../riscv64-linux-gnu/lib/libc.a(wcsnlen.o) (__wmemchr)
/usr/lib/gcc-cross/riscv64-linux-gnu/12/../../../../riscv64-linux-gnu/lib/libc.a(wmemset.o)
                              /usr/lib/gcc-cross/riscv64-linux-gnu/12/../../../../riscv64-linux-gnu/lib/libc.a(printf_fp.o) (__wmemset)
/usr/lib/gcc-cross/riscv64-linux-gnu/12/../../../../riscv64-linux-gnu/lib/libc.a(stat64.o)
                              /usr/lib/gcc-cross/riscv64-linux-gnu/12/../../../../riscv64-linux-gnu/lib/libc.a(dl-load.o) (__stat64)
/usr/lib/gcc-cross/riscv64-linux-gnu/12/../../../../riscv64-linux-gnu/lib/libc.a(profil.o)
                              /usr/lib/gcc-cross/riscv64-linux-gnu/12/../../../../riscv64-linux-gnu/lib/libc.a(dl-profile.o) (__profil)
/usr/lib/gcc-cross/riscv64-linux-gnu/12/../../../../riscv64-linux-gnu/lib/libc.a(prof-freq.o)
                              /usr/lib/gcc-cross/riscv64-linux-gnu/12/../../../../riscv64-linux-gnu/lib/libc.a(dl-profile.o) (__profile_frequency)
/usr/lib/gcc-cross/riscv64-linux-gnu/12/../../../../riscv64-linux-gnu/lib/libc.a(dl-close.o)
                              /usr/lib/gcc-cross/riscv64-linux-gnu/12/../../../../riscv64-linux-gnu/lib/libc.a(dl-libc.o) (_dl_close)
/usr/lib/gcc-cross/riscv64-linux-gnu/12/../../../../riscv64-linux-gnu/lib/libc.a(dl-execstack.o)
                              /usr/lib/gcc-cross/riscv64-linux-gnu/12/../../../../riscv64-linux-gnu/lib/libc.a(dl-load.o) (_dl_make_stacks_executable)
/usr/lib/gcc-cross/riscv64-linux-gnu/12/../../../../riscv64-linux-gnu/lib/libc.a(dl-find_object.o)
                              /usr/lib/gcc-cross/riscv64-linux-gnu/12/../../../../riscv64-linux-gnu/lib/libc.a(dl-close.o) (_dl_find_object_dlclose)
/usr/lib/gcc-cross/riscv64-linux-gnu/12/../../../../riscv64-linux-gnu/lib/libc.a(dl-open.o)
                              /usr/lib/gcc-cross/riscv64-linux-gnu/12/../../../../riscv64-linux-gnu/lib/libc.a(dl-libc.o) (_dl_open)
/usr/lib/gcc-cross/riscv64-linux-gnu/12/../../../../riscv64-linux-gnu/lib/libc.a(dl-runtime.o)
                              /usr/lib/gcc-cross/riscv64-linux-gnu/12/../../../../riscv64-linux-gnu/lib/libc.a(dl-trampoline.o) (_dl_fixup)
/usr/lib/gcc-cross/riscv64-linux-gnu/12/../../../../riscv64-linux-gnu/lib/libc.a(dl-sort-maps.o)
                              /usr/lib/gcc-cross/riscv64-linux-gnu/12/../../../../riscv64-linux-gnu/lib/libc.a(dl-close.o) (_dl_sort_maps)
/usr/lib/gcc-cross/riscv64-linux-gnu/12/../../../../riscv64-linux-gnu/lib/libc.a(dl-version.o)
                              /usr/lib/gcc-cross/riscv64-linux-gnu/12/../../../../riscv64-linux-gnu/lib/libc.a(dl-open.o) (_dl_check_map_versions)
/usr/lib/gcc-cross/riscv64-linux-gnu/12/../../../../riscv64-linux-gnu/lib/libc.a(dl-addr-obj.o)
                              /usr/lib/gcc-cross/riscv64-linux-gnu/12/../../../../riscv64-linux-gnu/lib/libc.a(dl-find_object.o) (_dl_addr_inside_object)
/usr/lib/gcc-cross/riscv64-linux-gnu/12/../../../../riscv64-linux-gnu/lib/libc.a(rtld_static_init.o)
                              /usr/lib/gcc-cross/riscv64-linux-gnu/12/../../../../riscv64-linux-gnu/lib/libc.a(dl-open.o) (__rtld_static_init)
/usr/lib/gcc-cross/riscv64-linux-gnu/12/../../../../riscv64-linux-gnu/lib/libc.a(lc-monetary.o)
                              /usr/lib/gcc-cross/riscv64-linux-gnu/12/../../../../riscv64-linux-gnu/lib/libc.a(printf_fphex.o) (_nl_current_LC_MONETARY)
/usr/lib/gcc-cross/riscv64-linux-gnu/12/../../../../riscv64-linux-gnu/lib/libc.a(cmp.o)
                              /usr/lib/gcc-cross/riscv64-linux-gnu/12/../../../../riscv64-linux-gnu/lib/libc.a(printf_fp.o) (__mpn_cmp)
/usr/lib/gcc-cross/riscv64-linux-gnu/12/../../../../riscv64-linux-gnu/lib/libc.a(divrem.o)
                              /usr/lib/gcc-cross/riscv64-linux-gnu/12/../../../../riscv64-linux-gnu/lib/libc.a(printf_fp.o) (__mpn_divrem)
/usr/lib/gcc-cross/riscv64-linux-gnu/12/../../../../riscv64-linux-gnu/lib/libc.a(lshift.o)
                              /usr/lib/gcc-cross/riscv64-linux-gnu/12/../../../../riscv64-linux-gnu/lib/libc.a(printf_fp.o) (__mpn_lshift)
/usr/lib/gcc-cross/riscv64-linux-gnu/12/../../../../riscv64-linux-gnu/lib/libc.a(rshift.o)
                              /usr/lib/gcc-cross/riscv64-linux-gnu/12/../../../../riscv64-linux-gnu/lib/libc.a(printf_fp.o) (__mpn_rshift)
/usr/lib/gcc-cross/riscv64-linux-gnu/12/../../../../riscv64-linux-gnu/lib/libc.a(mul.o)
                              /usr/lib/gcc-cross/riscv64-linux-gnu/12/../../../../riscv64-linux-gnu/lib/libc.a(printf_fp.o) (__mpn_mul)
/usr/lib/gcc-cross/riscv64-linux-gnu/12/../../../../riscv64-linux-gnu/lib/libc.a(mul_1.o)
                              /usr/lib/gcc-cross/riscv64-linux-gnu/12/../../../../riscv64-linux-gnu/lib/libc.a(printf_fp.o) (__mpn_mul_1)
/usr/lib/gcc-cross/riscv64-linux-gnu/12/../../../../riscv64-linux-gnu/lib/libc.a(mul_n.o)
                              /usr/lib/gcc-cross/riscv64-linux-gnu/12/../../../../riscv64-linux-gnu/lib/libc.a(mul.o) (__mpn_impn_mul_n)
/usr/lib/gcc-cross/riscv64-linux-gnu/12/../../../../riscv64-linux-gnu/lib/libc.a(sub_n.o)
                              /usr/lib/gcc-cross/riscv64-linux-gnu/12/../../../../riscv64-linux-gnu/lib/libc.a(divrem.o) (__mpn_sub_n)
/usr/lib/gcc-cross/riscv64-linux-gnu/12/../../../../riscv64-linux-gnu/lib/libc.a(submul_1.o)
                              /usr/lib/gcc-cross/riscv64-linux-gnu/12/../../../../riscv64-linux-gnu/lib/libc.a(divrem.o) (__mpn_submul_1)
/usr/lib/gcc-cross/riscv64-linux-gnu/12/../../../../riscv64-linux-gnu/lib/libc.a(dbl2mpn.o)
                              /usr/lib/gcc-cross/riscv64-linux-gnu/12/../../../../riscv64-linux-gnu/lib/libc.a(printf_fp.o) (__mpn_extract_double)
/usr/lib/gcc-cross/riscv64-linux-gnu/12/../../../../riscv64-linux-gnu/lib/libc.a(ldbl2mpn.o)
                              /usr/lib/gcc-cross/riscv64-linux-gnu/12/../../../../riscv64-linux-gnu/lib/libc.a(printf_fp.o) (__mpn_extract_long_double)
/usr/lib/gcc-cross/riscv64-linux-gnu/12/../../../../riscv64-linux-gnu/lib/libc.a(fpioconst.o)
                              /usr/lib/gcc-cross/riscv64-linux-gnu/12/../../../../riscv64-linux-gnu/lib/libc.a(printf_fp.o) (_fpioconst_pow10)
/usr/lib/gcc-cross/riscv64-linux-gnu/12/../../../../riscv64-linux-gnu/lib/libc.a(mp_clz_tab.o)
                              /usr/lib/gcc-cross/riscv64-linux-gnu/12/../../../../riscv64-linux-gnu/lib/libc.a(printf_fp.o) (__clz_tab)
/usr/lib/gcc-cross/riscv64-linux-gnu/12/../../../../riscv64-linux-gnu/lib/libc.a(dladdr.o)
                              /usr/lib/gcc-cross/riscv64-linux-gnu/12/../../../../riscv64-linux-gnu/lib/libc.a(rtld_static_init.o) (__dladdr)
/usr/lib/gcc-cross/riscv64-linux-gnu/12/../../../../riscv64-linux-gnu/lib/libc.a(dladdr1.o)
                              /usr/lib/gcc-cross/riscv64-linux-gnu/12/../../../../riscv64-linux-gnu/lib/libc.a(rtld_static_init.o) (__dladdr1)
/usr/lib/gcc-cross/riscv64-linux-gnu/12/../../../../riscv64-linux-gnu/lib/libc.a(dlclose.o)
                              /usr/lib/gcc-cross/riscv64-linux-gnu/12/../../../../riscv64-linux-gnu/lib/libc.a(rtld_static_init.o) (__dlclose)
/usr/lib/gcc-cross/riscv64-linux-gnu/12/../../../../riscv64-linux-gnu/lib/libc.a(dlerror.o)
                              /usr/lib/gcc-cross/riscv64-linux-gnu/12/../../../../riscv64-linux-gnu/lib/libc.a(rtld_static_init.o) (__dlerror)
/usr/lib/gcc-cross/riscv64-linux-gnu/12/../../../../riscv64-linux-gnu/lib/libc.a(dlinfo.o)
                              /usr/lib/gcc-cross/riscv64-linux-gnu/12/../../../../riscv64-linux-gnu/lib/libc.a(rtld_static_init.o) (__dlinfo)
/usr/lib/gcc-cross/riscv64-linux-gnu/12/../../../../riscv64-linux-gnu/lib/libc.a(dlmopen.o)
                              /usr/lib/gcc-cross/riscv64-linux-gnu/12/../../../../riscv64-linux-gnu/lib/libc.a(rtld_static_init.o) (__dlmopen)
/usr/lib/gcc-cross/riscv64-linux-gnu/12/../../../../riscv64-linux-gnu/lib/libc.a(dlopen.o)
                              /usr/lib/gcc-cross/riscv64-linux-gnu/12/../../../../riscv64-linux-gnu/lib/libc.a(rtld_static_init.o) (__dlopen)
/usr/lib/gcc-cross/riscv64-linux-gnu/12/../../../../riscv64-linux-gnu/lib/libc.a(dlsym.o)
                              /usr/lib/gcc-cross/riscv64-linux-gnu/12/../../../../riscv64-linux-gnu/lib/libc.a(rtld_static_init.o) (__dlsym)
/usr/lib/gcc-cross/riscv64-linux-gnu/12/../../../../riscv64-linux-gnu/lib/libc.a(dlvsym.o)
                              /usr/lib/gcc-cross/riscv64-linux-gnu/12/../../../../riscv64-linux-gnu/lib/libc.a(rtld_static_init.o) (__dlvsym)
/usr/lib/gcc-cross/riscv64-linux-gnu/12/../../../../riscv64-linux-gnu/lib/libc.a(libc_dlerror_result.o)
                              /usr/lib/gcc-cross/riscv64-linux-gnu/12/../../../../riscv64-linux-gnu/lib/libc.a(dlerror.o) (__libc_dlerror_result)
/usr/lib/gcc-cross/riscv64-linux-gnu/12/../../../../riscv64-linux-gnu/lib/libc.a(setitimer.o)
                              /usr/lib/gcc-cross/riscv64-linux-gnu/12/../../../../riscv64-linux-gnu/lib/libc.a(profil.o) (__setitimer)
/usr/lib/gcc-cross/riscv64-linux-gnu/12/../../../../riscv64-linux-gnu/lib/libc.a(dl-call-libc-early-init.o)
                              /usr/lib/gcc-cross/riscv64-linux-gnu/12/../../../../riscv64-linux-gnu/lib/libc.a(dl-open.o) (_dl_call_libc_early_init)
/usr/lib/gcc-cross/riscv64-linux-gnu/12/../../../../riscv64-linux-gnu/lib/libc.a(dl-deps.o)
                              /usr/lib/gcc-cross/riscv64-linux-gnu/12/../../../../riscv64-linux-gnu/lib/libc.a(dl-open.o) (_dl_map_object_deps)
/usr/lib/gcc-cross/riscv64-linux-gnu/12/../../../../riscv64-linux-gnu/lib/libc.a(dl-init.o)
                              /usr/lib/gcc-cross/riscv64-linux-gnu/12/../../../../riscv64-linux-gnu/lib/libc.a(dl-open.o) (_dl_init)
/usr/lib/gcc-cross/riscv64-linux-gnu/12/../../../../riscv64-linux-gnu/lib/libc.a(dl-lookup-direct.o)
                              /usr/lib/gcc-cross/riscv64-linux-gnu/12/../../../../riscv64-linux-gnu/lib/libc.a(rtld_static_init.o) (_dl_lookup_direct)
/usr/lib/gcc-cross/riscv64-linux-gnu/12/../../../../riscv64-linux-gnu/lib/libc.a(dl-addr.o)
                              /usr/lib/gcc-cross/riscv64-linux-gnu/12/../../../../riscv64-linux-gnu/lib/libc.a(dladdr.o) (_dl_addr)
/usr/lib/gcc-cross/riscv64-linux-gnu/12/../../../../riscv64-linux-gnu/lib/libc.a(dl-sym.o)
                              /usr/lib/gcc-cross/riscv64-linux-gnu/12/../../../../riscv64-linux-gnu/lib/libc.a(dlvsym.o) (_dl_vsym)
/usr/lib/gcc-cross/riscv64-linux-gnu/12/../../../../riscv64-linux-gnu/lib/libc.a(add_n.o)
                              /usr/lib/gcc-cross/riscv64-linux-gnu/12/../../../../riscv64-linux-gnu/lib/libc.a(divrem.o) (__mpn_add_n)
/usr/lib/gcc-cross/riscv64-linux-gnu/12/../../../../riscv64-linux-gnu/lib/libc.a(addmul_1.o)
                              /usr/lib/gcc-cross/riscv64-linux-gnu/12/../../../../riscv64-linux-gnu/lib/libc.a(mul.o) (__mpn_addmul_1)
/usr/lib/gcc-cross/riscv64-linux-gnu/12/libgcc.a(_ctzsi2.o)
                              /usr/lib/gcc-cross/riscv64-linux-gnu/12/../../../../riscv64-linux-gnu/lib/libc.a(malloc-hugepages.o) (__ctzdi2)
/usr/lib/gcc-cross/riscv64-linux-gnu/12/libgcc.a(_bswapsi2.o)
                              /usr/lib/gcc-cross/riscv64-linux-gnu/12/../../../../riscv64-linux-gnu/lib/libc.a(dcigettext.o) (__bswapsi2)
/usr/lib/gcc-cross/riscv64-linux-gnu/12/libgcc.a(letf2.o)
                              /usr/lib/gcc-cross/riscv64-linux-gnu/12/../../../../riscv64-linux-gnu/lib/libc.a(printf_fp.o) (__letf2)
/usr/lib/gcc-cross/riscv64-linux-gnu/12/libgcc.a(unordtf2.o)
                              /usr/lib/gcc-cross/riscv64-linux-gnu/12/../../../../riscv64-linux-gnu/lib/libc.a(printf_fp.o) (__unordtf2)
/usr/lib/gcc-cross/riscv64-linux-gnu/12/libgcc_eh.a(unwind-dw2.o)
                              /usr/lib/gcc-cross/riscv64-linux-gnu/12/../../../../riscv64-linux-gnu/lib/libc.a(iofclose.o) (_Unwind_Resume)
/usr/lib/gcc-cross/riscv64-linux-gnu/12/libgcc_eh.a(unwind-dw2-fde-dip.o)
                              /usr/lib/gcc-cross/riscv64-linux-gnu/12/libgcc_eh.a(unwind-dw2.o) (_Unwind_Find_FDE)
/usr/lib/gcc-cross/riscv64-linux-gnu/12/libgcc_eh.a(unwind-c.o)
                              /usr/lib/gcc-cross/riscv64-linux-gnu/12/../../../../riscv64-linux-gnu/lib/libc.a(iofclose.o) (__gcc_personality_v0)

Discarded input sections

 .note.GNU-stack
                0x0000000000000000        0x0 /usr/lib/gcc-cross/riscv64-linux-gnu/12/../../../../riscv64-linux-gnu/lib/crt1.o
 .note.GNU-stack
                0x0000000000000000        0x0 /usr/lib/gcc-cross/riscv64-linux-gnu/12/crtbeginT.o
 .note.GNU-stack
                0x0000000000000000        0x0 sum.elf-sum.o
 .note.GNU-stack
                0x0000000000000000        0x0 /usr/lib/gcc-cross/riscv64-linux-gnu/12/../../../../riscv64-linux-gnu/lib/libc.a(libc-start.o)
 .note.GNU-stack
                0x0000000000000000        0x0 /usr/lib/gcc-cross/riscv64-linux-gnu/12/../../../../riscv64-linux-gnu/lib/libc.a(check_fds.o)
 .note.GNU-stack
                0x0000000000000000        0x0 /usr/lib/gcc-cross/riscv64-linux-gnu/12/../../../../riscv64-linux-gnu/lib/libc.a(libc-tls.o)
 .note.GNU-stack
                0x0000000000000000        0x0 /usr/lib/gcc-cross/riscv64-linux-gnu/12/../../../../riscv64-linux-gnu/lib/libc.a(errno.o)
 .note.GNU-stack
                0x0000000000000000        0x0 /usr/lib/gcc-cross/riscv64-linux-gnu/12/../../../../riscv64-linux-gnu/lib/libc.a(assert.o)
 .note.GNU-stack
                0x0000000000000000        0x0 /usr/lib/gcc-cross/riscv64-linux-gnu/12/../../../../riscv64-linux-gnu/lib/libc.a(dcgettext.o)
 .note.GNU-stack
                0x0000000000000000        0x0 /usr/lib/gcc-cross/riscv64-linux-gnu/12/../../../../riscv64-linux-gnu/lib/libc.a(dcigettext.o)
 .note.GNU-stack
                0x0000000000000000        0x0 /usr/lib/gcc-cross/riscv64-linux-gnu/12/../../../../riscv64-linux-gnu/lib/libc.a(finddomain.o)
 .note.GNU-stack
                0x0000000000000000        0x0 /usr/lib/gcc-cross/riscv64-linux-gnu/12/../../../../riscv64-linux-gnu/lib/libc.a(loadmsgcat.o)
 .note.GNU-stack
                0x0000000000000000        0x0 /usr/lib/gcc-cross/riscv64-linux-gnu/12/../../../../riscv64-linux-gnu/lib/libc.a(localealias.o)
 .note.GNU-stack
                0x0000000000000000        0x0 /usr/lib/gcc-cross/riscv64-linux-gnu/12/../../../../riscv64-linux-gnu/lib/libc.a(l10nflist.o)
 .note.GNU-stack
                0x0000000000000000        0x0 /usr/lib/gcc-cross/riscv64-linux-gnu/12/../../../../riscv64-linux-gnu/lib/libc.a(explodename.o)
 .note.GNU-stack
                0x0000000000000000        0x0 /usr/lib/gcc-cross/riscv64-linux-gnu/12/../../../../riscv64-linux-gnu/lib/libc.a(plural.o)
 .note.GNU-stack
                0x0000000000000000        0x0 /usr/lib/gcc-cross/riscv64-linux-gnu/12/../../../../riscv64-linux-gnu/lib/libc.a(plural-exp.o)
 .note.GNU-stack
                0x0000000000000000        0x0 /usr/lib/gcc-cross/riscv64-linux-gnu/12/../../../../riscv64-linux-gnu/lib/libc.a(hash-string.o)
 .note.GNU-stack
                0x0000000000000000        0x0 /usr/lib/gcc-cross/riscv64-linux-gnu/12/../../../../riscv64-linux-gnu/lib/libc.a(setjmp.o)
 .note.GNU-stack
                0x0000000000000000        0x0 /usr/lib/gcc-cross/riscv64-linux-gnu/12/../../../../riscv64-linux-gnu/lib/libc.a(sigjmp.o)
 .note.GNU-stack
                0x0000000000000000        0x0 /usr/lib/gcc-cross/riscv64-linux-gnu/12/../../../../riscv64-linux-gnu/lib/libc.a(raise.o)
 .note.GNU-stack
                0x0000000000000000        0x0 /usr/lib/gcc-cross/riscv64-linux-gnu/12/../../../../riscv64-linux-gnu/lib/libc.a(sigprocmask.o)
 .note.GNU-stack
                0x0000000000000000        0x0 /usr/lib/gcc-cross/riscv64-linux-gnu/12/../../../../riscv64-linux-gnu/lib/libc.a(abort.o)
 .note.GNU-stack
                0x0000000000000000        0x0 /usr/lib/gcc-cross/riscv64-linux-gnu/12/../../../../riscv64-linux-gnu/lib/libc.a(msort.o)
 .note.GNU-stack
                0x0000000000000000        0x0 /usr/lib/gcc-cross/riscv64-linux-gnu/12/../../../../riscv64-linux-gnu/lib/libc.a(getenv.o)
 .note.GNU-stack
                0x0000000000000000        0x0 /usr/lib/gcc-cross/riscv64-linux-gnu/12/../../../../riscv64-linux-gnu/lib/libc.a(exit.o)
 .note.GNU-stack
                0x0000000000000000        0x0 /usr/lib/gcc-cross/riscv64-linux-gnu/12/../../../../riscv64-linux-gnu/lib/libc.a(cxa_atexit.o)
 .note.GNU-stack
                0x0000000000000000        0x0 /usr/lib/gcc-cross/riscv64-linux-gnu/12/../../../../riscv64-linux-gnu/lib/libc.a(strtoul.o)
 .note.GNU-stack
                0x0000000000000000        0x0 /usr/lib/gcc-cross/riscv64-linux-gnu/12/../../../../riscv64-linux-gnu/lib/libc.a(strtoul_l.o)
 .note.GNU-stack
                0x0000000000000000        0x0 /usr/lib/gcc-cross/riscv64-linux-gnu/12/../../../../riscv64-linux-gnu/lib/libc.a(grouping.o)
 .note.GNU-stack
                0x0000000000000000        0x0 /usr/lib/gcc-cross/riscv64-linux-gnu/12/../../../../riscv64-linux-gnu/lib/libc.a(asprintf.o)
 .note.GNU-stack
                0x0000000000000000        0x0 /usr/lib/gcc-cross/riscv64-linux-gnu/12/../../../../riscv64-linux-gnu/lib/libc.a(fxprintf.o)
 .group         0x0000000000000000        0xc /usr/lib/gcc-cross/riscv64-linux-gnu/12/../../../../riscv64-linux-gnu/lib/libc.a(iofclose.o)
 .note.GNU-stack
                0x0000000000000000        0x0 /usr/lib/gcc-cross/riscv64-linux-gnu/12/../../../../riscv64-linux-gnu/lib/libc.a(iofclose.o)
 .group         0x0000000000000000        0xc /usr/lib/gcc-cross/riscv64-linux-gnu/12/../../../../riscv64-linux-gnu/lib/libc.a(iofflush.o)
 .data.rel.local.DW.ref.__gcc_personality_v0
                0x0000000000000000        0x8 /usr/lib/gcc-cross/riscv64-linux-gnu/12/../../../../riscv64-linux-gnu/lib/libc.a(iofflush.o)
 .note.GNU-stack
                0x0000000000000000        0x0 /usr/lib/gcc-cross/riscv64-linux-gnu/12/../../../../riscv64-linux-gnu/lib/libc.a(iofflush.o)
 .note.GNU-stack
                0x0000000000000000        0x0 /usr/lib/gcc-cross/riscv64-linux-gnu/12/../../../../riscv64-linux-gnu/lib/libc.a(iofopen.o)
 .group         0x0000000000000000        0xc /usr/lib/gcc-cross/riscv64-linux-gnu/12/../../../../riscv64-linux-gnu/lib/libc.a(wfileops.o)
 .data.rel.local.DW.ref.__gcc_personality_v0
                0x0000000000000000        0x8 /usr/lib/gcc-cross/riscv64-linux-gnu/12/../../../../riscv64-linux-gnu/lib/libc.a(wfileops.o)
 .note.GNU-stack
                0x0000000000000000        0x0 /usr/lib/gcc-cross/riscv64-linux-gnu/12/../../../../riscv64-linux-gnu/lib/libc.a(wfileops.o)
 .note.GNU-stack
                0x0000000000000000        0x0 /usr/lib/gcc-cross/riscv64-linux-gnu/12/../../../../riscv64-linux-gnu/lib/libc.a(iofwide.o)
 .note.GNU-stack
                0x0000000000000000        0x0 /usr/lib/gcc-cross/riscv64-linux-gnu/12/../../../../riscv64-linux-gnu/lib/libc.a(vasprintf.o)
 .note.GNU-stack
                0x0000000000000000        0x0 /usr/lib/gcc-cross/riscv64-linux-gnu/12/../../../../riscv64-linux-gnu/lib/libc.a(libc_fatal.o)
 .note.GNU-stack
                0x0000000000000000        0x0 /usr/lib/gcc-cross/riscv64-linux-gnu/12/../../../../riscv64-linux-gnu/lib/libc.a(vtables.o)
 .note.GNU-stack
                0x0000000000000000        0x0 /usr/lib/gcc-cross/riscv64-linux-gnu/12/../../../../riscv64-linux-gnu/lib/libc.a(iofgets_u.o)
 .group         0x0000000000000000        0xc /usr/lib/gcc-cross/riscv64-linux-gnu/12/../../../../riscv64-linux-gnu/lib/libc.a(fileops.o)
 .data.rel.local.DW.ref.__gcc_personality_v0
                0x0000000000000000        0x8 /usr/lib/gcc-cross/riscv64-linux-gnu/12/../../../../riscv64-linux-gnu/lib/libc.a(fileops.o)
 .note.GNU-stack
                0x0000000000000000        0x0 /usr/lib/gcc-cross/riscv64-linux-gnu/12/../../../../riscv64-linux-gnu/lib/libc.a(fileops.o)
 .note.GNU-stack
                0x0000000000000000        0x0 /usr/lib/gcc-cross/riscv64-linux-gnu/12/../../../../riscv64-linux-gnu/lib/libc.a(genops.o)
 .note.GNU-stack
                0x0000000000000000        0x0 /usr/lib/gcc-cross/riscv64-linux-gnu/12/../../../../riscv64-linux-gnu/lib/libc.a(stdfiles.o)
 .note.GNU-stack
                0x0000000000000000        0x0 /usr/lib/gcc-cross/riscv64-linux-gnu/12/../../../../riscv64-linux-gnu/lib/libc.a(stdio.o)
 .note.GNU-stack
                0x0000000000000000        0x0 /usr/lib/gcc-cross/riscv64-linux-gnu/12/../../../../riscv64-linux-gnu/lib/libc.a(strops.o)
 .note.GNU-stack
                0x0000000000000000        0x0 /usr/lib/gcc-cross/riscv64-linux-gnu/12/../../../../riscv64-linux-gnu/lib/libc.a(alloca_cutoff.o)
 .note.GNU-stack
                0x0000000000000000        0x0 /usr/lib/gcc-cross/riscv64-linux-gnu/12/../../../../riscv64-linux-gnu/lib/libc.a(libc-cleanup.o)
 .note.GNU-stack
                0x0000000000000000        0x0 /usr/lib/gcc-cross/riscv64-linux-gnu/12/../../../../riscv64-linux-gnu/lib/libc.a(lowlevellock.o)
 .note.GNU-stack
                0x0000000000000000        0x0 /usr/lib/gcc-cross/riscv64-linux-gnu/12/../../../../riscv64-linux-gnu/lib/libc.a(nptl_deallocate_tsd.o)
 .note.GNU-stack
                0x0000000000000000        0x0 /usr/lib/gcc-cross/riscv64-linux-gnu/12/../../../../riscv64-linux-gnu/lib/libc.a(nptl_nthreads.o)
 .note.GNU-stack
                0x0000000000000000        0x0 /usr/lib/gcc-cross/riscv64-linux-gnu/12/../../../../riscv64-linux-gnu/lib/libc.a(pthread_keys.o)
 .note.GNU-stack
                0x0000000000000000        0x0 /usr/lib/gcc-cross/riscv64-linux-gnu/12/../../../../riscv64-linux-gnu/lib/libc.a(pthread_kill.o)
 .note.GNU-stack
                0x0000000000000000        0x0 /usr/lib/gcc-cross/riscv64-linux-gnu/12/../../../../riscv64-linux-gnu/lib/libc.a(pthread_rwlock_init.o)
 .note.GNU-stack
                0x0000000000000000        0x0 /usr/lib/gcc-cross/riscv64-linux-gnu/12/../../../../riscv64-linux-gnu/lib/libc.a(pthread_rwlock_rdlock.o)
 .note.GNU-stack
                0x0000000000000000        0x0 /usr/lib/gcc-cross/riscv64-linux-gnu/12/../../../../riscv64-linux-gnu/lib/libc.a(pthread_rwlock_unlock.o)
 .note.GNU-stack
                0x0000000000000000        0x0 /usr/lib/gcc-cross/riscv64-linux-gnu/12/../../../../riscv64-linux-gnu/lib/libc.a(pthread_rwlock_wrlock.o)
 .note.GNU-stack
                0x0000000000000000        0x0 /usr/lib/gcc-cross/riscv64-linux-gnu/12/../../../../riscv64-linux-gnu/lib/libc.a(pthread_self.o)
 .note.GNU-stack
                0x0000000000000000        0x0 /usr/lib/gcc-cross/riscv64-linux-gnu/12/../../../../riscv64-linux-gnu/lib/libc.a(pthread_setcancelstate.o)
 .note.GNU-stack
                0x0000000000000000        0x0 /usr/lib/gcc-cross/riscv64-linux-gnu/12/../../../../riscv64-linux-gnu/lib/libc.a(pthread_sigmask.o)
 .note.GNU-stack
                0x0000000000000000        0x0 /usr/lib/gcc-cross/riscv64-linux-gnu/12/../../../../riscv64-linux-gnu/lib/libc.a(pthread_testcancel.o)
 .note.GNU-stack
                0x0000000000000000        0x0 /usr/lib/gcc-cross/riscv64-linux-gnu/12/../../../../riscv64-linux-gnu/lib/libc.a(malloc.o)
 .note.GNU-stack
                0x0000000000000000        0x0 /usr/lib/gcc-cross/riscv64-linux-gnu/12/../../../../riscv64-linux-gnu/lib/libc.a(strchr.o)
 .note.GNU-stack
                0x0000000000000000        0x0 /usr/lib/gcc-cross/riscv64-linux-gnu/12/../../../../riscv64-linux-gnu/lib/libc.a(strcmp.o)
 .note.GNU-stack
                0x0000000000000000        0x0 /usr/lib/gcc-cross/riscv64-linux-gnu/12/../../../../riscv64-linux-gnu/lib/libc.a(strcpy.o)
 .note.GNU-stack
                0x0000000000000000        0x0 /usr/lib/gcc-cross/riscv64-linux-gnu/12/../../../../riscv64-linux-gnu/lib/libc.a(strcspn.o)
 .note.GNU-stack
                0x0000000000000000        0x0 /usr/lib/gcc-cross/riscv64-linux-gnu/12/../../../../riscv64-linux-gnu/lib/libc.a(strdup.o)
 .note.GNU-stack
                0x0000000000000000        0x0 /usr/lib/gcc-cross/riscv64-linux-gnu/12/../../../../riscv64-linux-gnu/lib/libc.a(strlen.o)
 .note.GNU-stack
                0x0000000000000000        0x0 /usr/lib/gcc-cross/riscv64-linux-gnu/12/../../../../riscv64-linux-gnu/lib/libc.a(strncmp.o)
 .note.GNU-stack
                0x0000000000000000        0x0 /usr/lib/gcc-cross/riscv64-linux-gnu/12/../../../../riscv64-linux-gnu/lib/libc.a(strstr.o)
 .note.GNU-stack
                0x0000000000000000        0x0 /usr/lib/gcc-cross/riscv64-linux-gnu/12/../../../../riscv64-linux-gnu/lib/libc.a(memcmp.o)
 .note.GNU-stack
                0x0000000000000000        0x0 /usr/lib/gcc-cross/riscv64-linux-gnu/12/../../../../riscv64-linux-gnu/lib/libc.a(memmove.o)
 .note.GNU-stack
                0x0000000000000000        0x0 /usr/lib/gcc-cross/riscv64-linux-gnu/12/../../../../riscv64-linux-gnu/lib/libc.a(memset.o)
 .note.GNU-stack
                0x0000000000000000        0x0 /usr/lib/gcc-cross/riscv64-linux-gnu/12/../../../../riscv64-linux-gnu/lib/libc.a(stpcpy.o)
 .note.GNU-stack
                0x0000000000000000        0x0 /usr/lib/gcc-cross/riscv64-linux-gnu/12/../../../../riscv64-linux-gnu/lib/libc.a(strcasecmp_l.o)
 .note.GNU-stack
                0x0000000000000000        0x0 /usr/lib/gcc-cross/riscv64-linux-gnu/12/../../../../riscv64-linux-gnu/lib/libc.a(memcpy.o)
 .note.GNU-stack
                0x0000000000000000        0x0 /usr/lib/gcc-cross/riscv64-linux-gnu/12/../../../../riscv64-linux-gnu/lib/libc.a(wordcopy.o)
 .note.GNU-stack
                0x0000000000000000        0x0 /usr/lib/gcc-cross/riscv64-linux-gnu/12/../../../../riscv64-linux-gnu/lib/libc.a(rawmemchr.o)
 .note.GNU-stack
                0x0000000000000000        0x0 /usr/lib/gcc-cross/riscv64-linux-gnu/12/../../../../riscv64-linux-gnu/lib/libc.a(strchrnul.o)
 .note.GNU-stack
                0x0000000000000000        0x0 /usr/lib/gcc-cross/riscv64-linux-gnu/12/../../../../riscv64-linux-gnu/lib/libc.a(wmempcpy.o)
 .note.GNU-stack
                0x0000000000000000        0x0 /usr/lib/gcc-cross/riscv64-linux-gnu/12/../../../../riscv64-linux-gnu/lib/libc.a(mbsrtowcs.o)
 .note.GNU-stack
                0x0000000000000000        0x0 /usr/lib/gcc-cross/riscv64-linux-gnu/12/../../../../riscv64-linux-gnu/lib/libc.a(wcsmbsload.o)
 .note.GNU-stack
                0x0000000000000000        0x0 /usr/lib/gcc-cross/riscv64-linux-gnu/12/../../../../riscv64-linux-gnu/lib/libc.a(mbsrtowcs_l.o)
 .note.GNU-stack
                0x0000000000000000        0x0 /usr/lib/gcc-cross/riscv64-linux-gnu/12/../../../../riscv64-linux-gnu/lib/libc.a(clock_gettime.o)
 .note.GNU-stack
                0x0000000000000000        0x0 /usr/lib/gcc-cross/riscv64-linux-gnu/12/../../../../riscv64-linux-gnu/lib/libc.a(_exit.o)
 .note.GNU-stack
                0x0000000000000000        0x0 /usr/lib/gcc-cross/riscv64-linux-gnu/12/../../../../riscv64-linux-gnu/lib/libc.a(getpid.o)
 .note.GNU-stack
                0x0000000000000000        0x0 /usr/lib/gcc-cross/riscv64-linux-gnu/12/../../../../riscv64-linux-gnu/lib/libc.a(sysconf.o)
 .note.GNU-stack
                0x0000000000000000        0x0 /usr/lib/gcc-cross/riscv64-linux-gnu/12/../../../../riscv64-linux-gnu/lib/libc.a(sched_yield.o)
 .note.GNU-stack
                0x0000000000000000        0x0 /usr/lib/gcc-cross/riscv64-linux-gnu/12/../../../../riscv64-linux-gnu/lib/libc.a(get_child_max.o)
 .note.GNU-stack
                0x0000000000000000        0x0 /usr/lib/gcc-cross/riscv64-linux-gnu/12/../../../../riscv64-linux-gnu/lib/libc.a(environ.o)
 .note.GNU-stack
                0x0000000000000000        0x0 /usr/lib/gcc-cross/riscv64-linux-gnu/12/../../../../riscv64-linux-gnu/lib/libc.a(fstat64.o)
 .note.GNU-stack
                0x0000000000000000        0x0 /usr/lib/gcc-cross/riscv64-linux-gnu/12/../../../../riscv64-linux-gnu/lib/libc.a(fstatat64.o)
 .note.GNU-stack
                0x0000000000000000        0x0 /usr/lib/gcc-cross/riscv64-linux-gnu/12/../../../../riscv64-linux-gnu/lib/libc.a(open64.o)
 .note.GNU-stack
                0x0000000000000000        0x0 /usr/lib/gcc-cross/riscv64-linux-gnu/12/../../../../riscv64-linux-gnu/lib/libc.a(read.o)
 .note.GNU-stack
                0x0000000000000000        0x0 /usr/lib/gcc-cross/riscv64-linux-gnu/12/../../../../riscv64-linux-gnu/lib/libc.a(write.o)
 .note.GNU-stack
                0x0000000000000000        0x0 /usr/lib/gcc-cross/riscv64-linux-gnu/12/../../../../riscv64-linux-gnu/lib/libc.a(lseek64.o)
 .note.GNU-stack
                0x0000000000000000        0x0 /usr/lib/gcc-cross/riscv64-linux-gnu/12/../../../../riscv64-linux-gnu/lib/libc.a(getcwd.o)
 .note.GNU-stack
                0x0000000000000000        0x0 /usr/lib/gcc-cross/riscv64-linux-gnu/12/../../../../riscv64-linux-gnu/lib/libc.a(close_nocancel.o)
 .note.GNU-stack
                0x0000000000000000        0x0 /usr/lib/gcc-cross/riscv64-linux-gnu/12/../../../../riscv64-linux-gnu/lib/libc.a(fcntl_nocancel.o)
 .note.GNU-stack
                0x0000000000000000        0x0 /usr/lib/gcc-cross/riscv64-linux-gnu/12/../../../../riscv64-linux-gnu/lib/libc.a(open64_nocancel.o)
 .note.GNU-stack
                0x0000000000000000        0x0 /usr/lib/gcc-cross/riscv64-linux-gnu/12/../../../../riscv64-linux-gnu/lib/libc.a(read_nocancel.o)
 .note.GNU-stack
                0x0000000000000000        0x0 /usr/lib/gcc-cross/riscv64-linux-gnu/12/../../../../riscv64-linux-gnu/lib/libc.a(write_nocancel.o)
 .note.GNU-stack
                0x0000000000000000        0x0 /usr/lib/gcc-cross/riscv64-linux-gnu/12/../../../../riscv64-linux-gnu/lib/libc.a(getrlimit64.o)
 .note.GNU-stack
                0x0000000000000000        0x0 /usr/lib/gcc-cross/riscv64-linux-gnu/12/../../../../riscv64-linux-gnu/lib/libc.a(brk.o)
 .note.GNU-stack
                0x0000000000000000        0x0 /usr/lib/gcc-cross/riscv64-linux-gnu/12/../../../../riscv64-linux-gnu/lib/libc.a(sbrk.o)
 .note.GNU-stack
                0x0000000000000000        0x0 /usr/lib/gcc-cross/riscv64-linux-gnu/12/../../../../riscv64-linux-gnu/lib/libc.a(getpagesize.o)
 .note.GNU-stack
                0x0000000000000000        0x0 /usr/lib/gcc-cross/riscv64-linux-gnu/12/../../../../riscv64-linux-gnu/lib/libc.a(getdtsz.o)
 .note.GNU-stack
                0x0000000000000000        0x0 /usr/lib/gcc-cross/riscv64-linux-gnu/12/../../../../riscv64-linux-gnu/lib/libc.a(mmap64.o)
 .note.GNU-stack
                0x0000000000000000        0x0 /usr/lib/gcc-cross/riscv64-linux-gnu/12/../../../../riscv64-linux-gnu/lib/libc.a(munmap.o)
 .note.GNU-stack
                0x0000000000000000        0x0 /usr/lib/gcc-cross/riscv64-linux-gnu/12/../../../../riscv64-linux-gnu/lib/libc.a(mprotect.o)
 .note.GNU-stack
                0x0000000000000000        0x0 /usr/lib/gcc-cross/riscv64-linux-gnu/12/../../../../riscv64-linux-gnu/lib/libc.a(madvise.o)
 .note.GNU-stack
                0x0000000000000000        0x0 /usr/lib/gcc-cross/riscv64-linux-gnu/12/../../../../riscv64-linux-gnu/lib/libc.a(tsearch.o)
 .note.GNU-stack
                0x0000000000000000        0x0 /usr/lib/gcc-cross/riscv64-linux-gnu/12/../../../../riscv64-linux-gnu/lib/libc.a(getsysstats.o)
 .note.GNU-stack
                0x0000000000000000        0x0 /usr/lib/gcc-cross/riscv64-linux-gnu/12/../../../../riscv64-linux-gnu/lib/libc.a(getclktck.o)
 .note.GNU-stack
                0x0000000000000000        0x0 /usr/lib/gcc-cross/riscv64-linux-gnu/12/../../../../riscv64-linux-gnu/lib/libc.a(getauxval.o)
 .note.GNU-stack
                0x0000000000000000        0x0 /usr/lib/gcc-cross/riscv64-linux-gnu/12/../../../../riscv64-linux-gnu/lib/libc.a(init-misc.o)
 .note.GNU-stack
                0x0000000000000000        0x0 /usr/lib/gcc-cross/riscv64-linux-gnu/12/../../../../riscv64-linux-gnu/lib/libc.a(mremap.o)
 .note.GNU-stack
                0x0000000000000000        0x0 /usr/lib/gcc-cross/riscv64-linux-gnu/12/../../../../riscv64-linux-gnu/lib/libc.a(sysinfo.o)
 .note.GNU-stack
                0x0000000000000000        0x0 /usr/lib/gcc-cross/riscv64-linux-gnu/12/../../../../riscv64-linux-gnu/lib/libc.a(malloc-hugepages.o)
 .note.GNU-stack
                0x0000000000000000        0x0 /usr/lib/gcc-cross/riscv64-linux-gnu/12/../../../../riscv64-linux-gnu/lib/libc.a(stack_chk_fail.o)
 .note.GNU-stack
                0x0000000000000000        0x0 /usr/lib/gcc-cross/riscv64-linux-gnu/12/../../../../riscv64-linux-gnu/lib/libc.a(fortify_fail.o)
 .note.GNU-stack
                0x0000000000000000        0x0 /usr/lib/gcc-cross/riscv64-linux-gnu/12/../../../../riscv64-linux-gnu/lib/libc.a(dl-debug.o)
 .note.GNU-stack
                0x0000000000000000        0x0 /usr/lib/gcc-cross/riscv64-linux-gnu/12/../../../../riscv64-linux-gnu/lib/libc.a(dl-debug-symbols.o)
 .note.GNU-stack
                0x0000000000000000        0x0 /usr/lib/gcc-cross/riscv64-linux-gnu/12/../../../../riscv64-linux-gnu/lib/libc.a(dl-tls.o)
 .note.GNU-stack
                0x0000000000000000        0x0 /usr/lib/gcc-cross/riscv64-linux-gnu/12/../../../../riscv64-linux-gnu/lib/libc.a(dl-tls_init_tp.o)
 .note.GNU-stack
                0x0000000000000000        0x0 /usr/lib/gcc-cross/riscv64-linux-gnu/12/../../../../riscv64-linux-gnu/lib/libc.a(dl-tunables.o)
 .note.GNU-stack
                0x0000000000000000        0x0 /usr/lib/gcc-cross/riscv64-linux-gnu/12/../../../../riscv64-linux-gnu/lib/libc.a(dl-error.o)
 .note.GNU-stack
                0x0000000000000000        0x0 /usr/lib/gcc-cross/riscv64-linux-gnu/12/../../../../riscv64-linux-gnu/lib/libc.a(dl-profstub.o)
 .note.GNU-stack
                0x0000000000000000        0x0 /usr/lib/gcc-cross/riscv64-linux-gnu/12/../../../../riscv64-linux-gnu/lib/libc.a(dl-support.o)
 .note.GNU-stack
                0x0000000000000000        0x0 /usr/lib/gcc-cross/riscv64-linux-gnu/12/../../../../riscv64-linux-gnu/lib/libc.a(dl-sysdep.o)
 .note.GNU-stack
                0x0000000000000000        0x0 /usr/lib/gcc-cross/riscv64-linux-gnu/12/../../../../riscv64-linux-gnu/lib/libc.a(enbl-secure.o)
 .note.GNU-stack
                0x0000000000000000        0x0 /usr/lib/gcc-cross/riscv64-linux-gnu/12/../../../../riscv64-linux-gnu/lib/libc.a(libc_early_init.o)
 .note.GNU-stack
                0x0000000000000000        0x0 /usr/lib/gcc-cross/riscv64-linux-gnu/12/../../../../riscv64-linux-gnu/lib/libc.a(init-first.o)
 .note.GNU-stack
                0x0000000000000000        0x0 /usr/lib/gcc-cross/riscv64-linux-gnu/12/../../../../riscv64-linux-gnu/lib/libc.a(sysdep.o)
 .note.GNU-stack
                0x0000000000000000        0x0 /usr/lib/gcc-cross/riscv64-linux-gnu/12/../../../../riscv64-linux-gnu/lib/libc.a(gconv_open.o)
 .note.GNU-stack
                0x0000000000000000        0x0 /usr/lib/gcc-cross/riscv64-linux-gnu/12/../../../../riscv64-linux-gnu/lib/libc.a(gconv.o)
 .note.GNU-stack
                0x0000000000000000        0x0 /usr/lib/gcc-cross/riscv64-linux-gnu/12/../../../../riscv64-linux-gnu/lib/libc.a(gconv_close.o)
 .note.GNU-stack
                0x0000000000000000        0x0 /usr/lib/gcc-cross/riscv64-linux-gnu/12/../../../../riscv64-linux-gnu/lib/libc.a(gconv_db.o)
 .note.GNU-stack
                0x0000000000000000        0x0 /usr/lib/gcc-cross/riscv64-linux-gnu/12/../../../../riscv64-linux-gnu/lib/libc.a(gconv_conf.o)
 .note.GNU-stack
                0x0000000000000000        0x0 /usr/lib/gcc-cross/riscv64-linux-gnu/12/../../../../riscv64-linux-gnu/lib/libc.a(gconv_builtin.o)
 .note.GNU-stack
                0x0000000000000000        0x0 /usr/lib/gcc-cross/riscv64-linux-gnu/12/../../../../riscv64-linux-gnu/lib/libc.a(gconv_simple.o)
 .note.GNU-stack
                0x0000000000000000        0x0 /usr/lib/gcc-cross/riscv64-linux-gnu/12/../../../../riscv64-linux-gnu/lib/libc.a(gconv_trans.o)
 .note.GNU-stack
                0x0000000000000000        0x0 /usr/lib/gcc-cross/riscv64-linux-gnu/12/../../../../riscv64-linux-gnu/lib/libc.a(gconv_cache.o)
 .note.GNU-stack
                0x0000000000000000        0x0 /usr/lib/gcc-cross/riscv64-linux-gnu/12/../../../../riscv64-linux-gnu/lib/libc.a(gconv_dl.o)
 .note.GNU-stack
                0x0000000000000000        0x0 /usr/lib/gcc-cross/riscv64-linux-gnu/12/../../../../riscv64-linux-gnu/lib/libc.a(gconv_charset.o)
 .note.GNU-stack
                0x0000000000000000        0x0 /usr/lib/gcc-cross/riscv64-linux-gnu/12/../../../../riscv64-linux-gnu/lib/libc.a(setlocale.o)
 .note.GNU-stack
                0x0000000000000000        0x0 /usr/lib/gcc-cross/riscv64-linux-gnu/12/../../../../riscv64-linux-gnu/lib/libc.a(findlocale.o)
 .note.GNU-stack
                0x0000000000000000        0x0 /usr/lib/gcc-cross/riscv64-linux-gnu/12/../../../../riscv64-linux-gnu/lib/libc.a(loadlocale.o)
 .note.GNU-stack
                0x0000000000000000        0x0 /usr/lib/gcc-cross/riscv64-linux-gnu/12/../../../../riscv64-linux-gnu/lib/libc.a(loadarchive.o)
 .note.GNU-stack
                0x0000000000000000        0x0 /usr/lib/gcc-cross/riscv64-linux-gnu/12/../../../../riscv64-linux-gnu/lib/libc.a(lc-ctype.o)
 .note.GNU-stack
                0x0000000000000000        0x0 /usr/lib/gcc-cross/riscv64-linux-gnu/12/../../../../riscv64-linux-gnu/lib/libc.a(C-ctype.o)
 .note.GNU-stack
                0x0000000000000000        0x0 /usr/lib/gcc-cross/riscv64-linux-gnu/12/../../../../riscv64-linux-gnu/lib/libc.a(SYS_libc.o)
 .note.GNU-stack
                0x0000000000000000        0x0 /usr/lib/gcc-cross/riscv64-linux-gnu/12/../../../../riscv64-linux-gnu/lib/libc.a(C_name.o)
 .note.GNU-stack
                0x0000000000000000        0x0 /usr/lib/gcc-cross/riscv64-linux-gnu/12/../../../../riscv64-linux-gnu/lib/libc.a(xlocale.o)
 .note.GNU-stack
                0x0000000000000000        0x0 /usr/lib/gcc-cross/riscv64-linux-gnu/12/../../../../riscv64-linux-gnu/lib/libc.a(localename.o)
 .note.GNU-stack
                0x0000000000000000        0x0 /usr/lib/gcc-cross/riscv64-linux-gnu/12/../../../../riscv64-linux-gnu/lib/libc.a(global-locale.o)
 .note.GNU-stack
                0x0000000000000000        0x0 /usr/lib/gcc-cross/riscv64-linux-gnu/12/../../../../riscv64-linux-gnu/lib/libc.a(ctype-info.o)
 .note.GNU-stack
                0x0000000000000000        0x0 /usr/lib/gcc-cross/riscv64-linux-gnu/12/../../../../riscv64-linux-gnu/lib/libc.a(__longjmp.o)
 .note.GNU-stack
                0x0000000000000000        0x0 /usr/lib/gcc-cross/riscv64-linux-gnu/12/../../../../riscv64-linux-gnu/lib/libc.a(sigaction.o)
 .note.GNU-stack
                0x0000000000000000        0x0 /usr/lib/gcc-cross/riscv64-linux-gnu/12/../../../../riscv64-linux-gnu/lib/libc.a(libc_sigaction.o)
 .note.GNU-stack
                0x0000000000000000        0x0 /usr/lib/gcc-cross/riscv64-linux-gnu/12/../../../../riscv64-linux-gnu/lib/libc.a(qsort.o)
 .note.GNU-stack
                0x0000000000000000        0x0 /usr/lib/gcc-cross/riscv64-linux-gnu/12/../../../../riscv64-linux-gnu/lib/libc.a(setenv.o)
 .note.GNU-stack
                0x0000000000000000        0x0 /usr/lib/gcc-cross/riscv64-linux-gnu/12/../../../../riscv64-linux-gnu/lib/libc.a(getrandom.o)
 .note.GNU-stack
                0x0000000000000000        0x0 /usr/lib/gcc-cross/riscv64-linux-gnu/12/../../../../riscv64-linux-gnu/lib/libc.a(strtol.o)
 .note.GNU-stack
                0x0000000000000000        0x0 /usr/lib/gcc-cross/riscv64-linux-gnu/12/../../../../riscv64-linux-gnu/lib/libc.a(strtol_l.o)
 .note.GNU-stack
                0x0000000000000000        0x0 /usr/lib/gcc-cross/riscv64-linux-gnu/12/../../../../riscv64-linux-gnu/lib/libc.a(fprintf.o)
 .note.GNU-stack
                0x0000000000000000        0x0 /usr/lib/gcc-cross/riscv64-linux-gnu/12/../../../../riscv64-linux-gnu/lib/libc.a(vfprintf-internal.o)
 .note.GNU-stack
                0x0000000000000000        0x0 /usr/lib/gcc-cross/riscv64-linux-gnu/12/../../../../riscv64-linux-gnu/lib/libc.a(vfwprintf-internal.o)
 .note.GNU-stack
                0x0000000000000000        0x0 /usr/lib/gcc-cross/riscv64-linux-gnu/12/../../../../riscv64-linux-gnu/lib/libc.a(errlist.o)
 .note.GNU-stack
                0x0000000000000000        0x0 /usr/lib/gcc-cross/riscv64-linux-gnu/12/../../../../riscv64-linux-gnu/lib/libc.a(printf-parsemb.o)
 .note.GNU-stack
                0x0000000000000000        0x0 /usr/lib/gcc-cross/riscv64-linux-gnu/12/../../../../riscv64-linux-gnu/lib/libc.a(printf-parsewc.o)
 .note.GNU-stack
                0x0000000000000000        0x0 /usr/lib/gcc-cross/riscv64-linux-gnu/12/../../../../riscv64-linux-gnu/lib/libc.a(filedoalloc.o)
 .group         0x0000000000000000        0xc /usr/lib/gcc-cross/riscv64-linux-gnu/12/../../../../riscv64-linux-gnu/lib/libc.a(iofputs.o)
 .data.rel.local.DW.ref.__gcc_personality_v0
                0x0000000000000000        0x8 /usr/lib/gcc-cross/riscv64-linux-gnu/12/../../../../riscv64-linux-gnu/lib/libc.a(iofputs.o)
 .note.GNU-stack
                0x0000000000000000        0x0 /usr/lib/gcc-cross/riscv64-linux-gnu/12/../../../../riscv64-linux-gnu/lib/libc.a(iofputs.o)
 .note.GNU-stack
                0x0000000000000000        0x0 /usr/lib/gcc-cross/riscv64-linux-gnu/12/../../../../riscv64-linux-gnu/lib/libc.a(wfiledoalloc.o)
 .group         0x0000000000000000        0xc /usr/lib/gcc-cross/riscv64-linux-gnu/12/../../../../riscv64-linux-gnu/lib/libc.a(iofwrite.o)
 .data.rel.local.DW.ref.__gcc_personality_v0
                0x0000000000000000        0x8 /usr/lib/gcc-cross/riscv64-linux-gnu/12/../../../../riscv64-linux-gnu/lib/libc.a(iofwrite.o)
 .note.GNU-stack
                0x0000000000000000        0x0 /usr/lib/gcc-cross/riscv64-linux-gnu/12/../../../../riscv64-linux-gnu/lib/libc.a(iofwrite.o)
 .group         0x0000000000000000        0xc /usr/lib/gcc-cross/riscv64-linux-gnu/12/../../../../riscv64-linux-gnu/lib/libc.a(iogetdelim.o)
 .data.rel.local.DW.ref.__gcc_personality_v0
                0x0000000000000000        0x8 /usr/lib/gcc-cross/riscv64-linux-gnu/12/../../../../riscv64-linux-gnu/lib/libc.a(iogetdelim.o)
 .note.GNU-stack
                0x0000000000000000        0x0 /usr/lib/gcc-cross/riscv64-linux-gnu/12/../../../../riscv64-linux-gnu/lib/libc.a(iogetdelim.o)
 .note.GNU-stack
                0x0000000000000000        0x0 /usr/lib/gcc-cross/riscv64-linux-gnu/12/../../../../riscv64-linux-gnu/lib/libc.a(iogetline.o)
 .note.GNU-stack
                0x0000000000000000        0x0 /usr/lib/gcc-cross/riscv64-linux-gnu/12/../../../../riscv64-linux-gnu/lib/libc.a(iopadn.o)
 .note.GNU-stack
                0x0000000000000000        0x0 /usr/lib/gcc-cross/riscv64-linux-gnu/12/../../../../riscv64-linux-gnu/lib/libc.a(iowpadn.o)
 .note.GNU-stack
                0x0000000000000000        0x0 /usr/lib/gcc-cross/riscv64-linux-gnu/12/../../../../riscv64-linux-gnu/lib/libc.a(wgenops.o)
 .note.GNU-stack
                0x0000000000000000        0x0 /usr/lib/gcc-cross/riscv64-linux-gnu/12/../../../../riscv64-linux-gnu/lib/libc.a(cancellation.o)
 .note.GNU-stack
                0x0000000000000000        0x0 /usr/lib/gcc-cross/riscv64-linux-gnu/12/../../../../riscv64-linux-gnu/lib/libc.a(futex-internal.o)
 .note.GNU-stack
                0x0000000000000000        0x0 /usr/lib/gcc-cross/riscv64-linux-gnu/12/../../../../riscv64-linux-gnu/lib/libc.a(pthread_mutex_conf.o)
 .note.GNU-stack
                0x0000000000000000        0x0 /usr/lib/gcc-cross/riscv64-linux-gnu/12/../../../../riscv64-linux-gnu/lib/libc.a(pthread_mutex_lock.o)
 .note.GNU-stack
                0x0000000000000000        0x0 /usr/lib/gcc-cross/riscv64-linux-gnu/12/../../../../riscv64-linux-gnu/lib/libc.a(pthread_mutex_unlock.o)
 .group         0x0000000000000000        0xc /usr/lib/gcc-cross/riscv64-linux-gnu/12/../../../../riscv64-linux-gnu/lib/libc.a(pthread_once.o)
 .data.rel.local.DW.ref.__gcc_personality_v0
                0x0000000000000000        0x8 /usr/lib/gcc-cross/riscv64-linux-gnu/12/../../../../riscv64-linux-gnu/lib/libc.a(pthread_once.o)
 .note.GNU-stack
                0x0000000000000000        0x0 /usr/lib/gcc-cross/riscv64-linux-gnu/12/../../../../riscv64-linux-gnu/lib/libc.a(pthread_once.o)
 .note.GNU-stack
                0x0000000000000000        0x0 /usr/lib/gcc-cross/riscv64-linux-gnu/12/../../../../riscv64-linux-gnu/lib/libc.a(tpp.o)
 .note.GNU-stack
                0x0000000000000000        0x0 /usr/lib/gcc-cross/riscv64-linux-gnu/12/../../../../riscv64-linux-gnu/lib/libc.a(vars.o)
 .note.GNU-stack
                0x0000000000000000        0x0 /usr/lib/gcc-cross/riscv64-linux-gnu/12/../../../../riscv64-linux-gnu/lib/libc.a(scratch_buffer_grow_preserve.o)
 .note.GNU-stack
                0x0000000000000000        0x0 /usr/lib/gcc-cross/riscv64-linux-gnu/12/../../../../riscv64-linux-gnu/lib/libc.a(scratch_buffer_set_array_size.o)
 .note.GNU-stack
                0x0000000000000000        0x0 /usr/lib/gcc-cross/riscv64-linux-gnu/12/../../../../riscv64-linux-gnu/lib/libc.a(strndup.o)
 .note.GNU-stack
                0x0000000000000000        0x0 /usr/lib/gcc-cross/riscv64-linux-gnu/12/../../../../riscv64-linux-gnu/lib/libc.a(_strerror.o)
 .note.GNU-stack
                0x0000000000000000        0x0 /usr/lib/gcc-cross/riscv64-linux-gnu/12/../../../../riscv64-linux-gnu/lib/libc.a(strnlen.o)
 .note.GNU-stack
                0x0000000000000000        0x0 /usr/lib/gcc-cross/riscv64-linux-gnu/12/../../../../riscv64-linux-gnu/lib/libc.a(strrchr.o)
 .note.GNU-stack
                0x0000000000000000        0x0 /usr/lib/gcc-cross/riscv64-linux-gnu/12/../../../../riscv64-linux-gnu/lib/libc.a(strtok_r.o)
 .note.GNU-stack
                0x0000000000000000        0x0 /usr/lib/gcc-cross/riscv64-linux-gnu/12/../../../../riscv64-linux-gnu/lib/libc.a(memchr.o)
 .note.GNU-stack
                0x0000000000000000        0x0 /usr/lib/gcc-cross/riscv64-linux-gnu/12/../../../../riscv64-linux-gnu/lib/libc.a(memmem.o)
 .note.GNU-stack
                0x0000000000000000        0x0 /usr/lib/gcc-cross/riscv64-linux-gnu/12/../../../../riscv64-linux-gnu/lib/libc.a(argz-ctsep.o)
 .note.GNU-stack
                0x0000000000000000        0x0 /usr/lib/gcc-cross/riscv64-linux-gnu/12/../../../../riscv64-linux-gnu/lib/libc.a(argz-addsep.o)
 .note.GNU-stack
                0x0000000000000000        0x0 /usr/lib/gcc-cross/riscv64-linux-gnu/12/../../../../riscv64-linux-gnu/lib/libc.a(wcslen.o)
 .note.GNU-stack
                0x0000000000000000        0x0 /usr/lib/gcc-cross/riscv64-linux-gnu/12/../../../../riscv64-linux-gnu/lib/libc.a(wmemcpy.o)
 .note.GNU-stack
                0x0000000000000000        0x0 /usr/lib/gcc-cross/riscv64-linux-gnu/12/../../../../riscv64-linux-gnu/lib/libc.a(wmemmove.o)
 .note.GNU-stack
                0x0000000000000000        0x0 /usr/lib/gcc-cross/riscv64-linux-gnu/12/../../../../riscv64-linux-gnu/lib/libc.a(btowc.o)
 .note.GNU-stack
                0x0000000000000000        0x0 /usr/lib/gcc-cross/riscv64-linux-gnu/12/../../../../riscv64-linux-gnu/lib/libc.a(wcrtomb.o)
 .note.GNU-stack
                0x0000000000000000        0x0 /usr/lib/gcc-cross/riscv64-linux-gnu/12/../../../../riscv64-linux-gnu/lib/libc.a(wcsrtombs.o)
 .note.GNU-stack
                0x0000000000000000        0x0 /usr/lib/gcc-cross/riscv64-linux-gnu/12/../../../../riscv64-linux-gnu/lib/libc.a(wcsnlen.o)
 .note.GNU-stack
                0x0000000000000000        0x0 /usr/lib/gcc-cross/riscv64-linux-gnu/12/../../../../riscv64-linux-gnu/lib/libc.a(wcschrnul.o)
 .note.GNU-stack
                0x0000000000000000        0x0 /usr/lib/gcc-cross/riscv64-linux-gnu/12/../../../../riscv64-linux-gnu/lib/libc.a(opendir.o)
 .note.GNU-stack
                0x0000000000000000        0x0 /usr/lib/gcc-cross/riscv64-linux-gnu/12/../../../../riscv64-linux-gnu/lib/libc.a(closedir.o)
 .note.GNU-stack
                0x0000000000000000        0x0 /usr/lib/gcc-cross/riscv64-linux-gnu/12/../../../../riscv64-linux-gnu/lib/libc.a(rewinddir.o)
 .note.GNU-stack
                0x0000000000000000        0x0 /usr/lib/gcc-cross/riscv64-linux-gnu/12/../../../../riscv64-linux-gnu/lib/libc.a(getdents64.o)
 .note.GNU-stack
                0x0000000000000000        0x0 /usr/lib/gcc-cross/riscv64-linux-gnu/12/../../../../riscv64-linux-gnu/lib/libc.a(readdir64.o)
 .note.GNU-stack
                0x0000000000000000        0x0 /usr/lib/gcc-cross/riscv64-linux-gnu/12/../../../../riscv64-linux-gnu/lib/libc.a(fdopendir.o)
 .note.GNU-stack
                0x0000000000000000        0x0 /usr/lib/gcc-cross/riscv64-linux-gnu/12/../../../../riscv64-linux-gnu/lib/libc.a(uname.o)
 .note.GNU-stack
                0x0000000000000000        0x0 /usr/lib/gcc-cross/riscv64-linux-gnu/12/../../../../riscv64-linux-gnu/lib/libc.a(getuid.o)
 .note.GNU-stack
                0x0000000000000000        0x0 /usr/lib/gcc-cross/riscv64-linux-gnu/12/../../../../riscv64-linux-gnu/lib/libc.a(geteuid.o)
 .note.GNU-stack
                0x0000000000000000        0x0 /usr/lib/gcc-cross/riscv64-linux-gnu/12/../../../../riscv64-linux-gnu/lib/libc.a(getgid.o)
 .note.GNU-stack
                0x0000000000000000        0x0 /usr/lib/gcc-cross/riscv64-linux-gnu/12/../../../../riscv64-linux-gnu/lib/libc.a(getegid.o)
 .note.GNU-stack
                0x0000000000000000        0x0 /usr/lib/gcc-cross/riscv64-linux-gnu/12/../../../../riscv64-linux-gnu/lib/libc.a(sched_getp.o)
 .note.GNU-stack
                0x0000000000000000        0x0 /usr/lib/gcc-cross/riscv64-linux-gnu/12/../../../../riscv64-linux-gnu/lib/libc.a(sched_sets.o)
 .note.GNU-stack
                0x0000000000000000        0x0 /usr/lib/gcc-cross/riscv64-linux-gnu/12/../../../../riscv64-linux-gnu/lib/libc.a(sched_gets.o)
 .note.GNU-stack
                0x0000000000000000        0x0 /usr/lib/gcc-cross/riscv64-linux-gnu/12/../../../../riscv64-linux-gnu/lib/libc.a(sched_primax.o)
 .note.GNU-stack
                0x0000000000000000        0x0 /usr/lib/gcc-cross/riscv64-linux-gnu/12/../../../../riscv64-linux-gnu/lib/libc.a(sched_primin.o)
 .note.GNU-stack
                0x0000000000000000        0x0 /usr/lib/gcc-cross/riscv64-linux-gnu/12/../../../../riscv64-linux-gnu/lib/libc.a(sched_cpucount.o)
 .note.GNU-stack
                0x0000000000000000        0x0 /usr/lib/gcc-cross/riscv64-linux-gnu/12/../../../../riscv64-linux-gnu/lib/libc.a(lstat64.o)
 .note.GNU-stack
                0x0000000000000000        0x0 /usr/lib/gcc-cross/riscv64-linux-gnu/12/../../../../riscv64-linux-gnu/lib/libc.a(openat64.o)
 .note.GNU-stack
                0x0000000000000000        0x0 /usr/lib/gcc-cross/riscv64-linux-gnu/12/../../../../riscv64-linux-gnu/lib/libc.a(isatty.o)
 .note.GNU-stack
                0x0000000000000000        0x0 /usr/lib/gcc-cross/riscv64-linux-gnu/12/../../../../riscv64-linux-gnu/lib/libc.a(openat64_nocancel.o)
 .note.GNU-stack
                0x0000000000000000        0x0 /usr/lib/gcc-cross/riscv64-linux-gnu/12/../../../../riscv64-linux-gnu/lib/libc.a(pread64_nocancel.o)
 .note.GNU-stack
                0x0000000000000000        0x0 /usr/lib/gcc-cross/riscv64-linux-gnu/12/../../../../riscv64-linux-gnu/lib/libc.a(tcgetattr.o)
 .note.GNU-stack
                0x0000000000000000        0x0 /usr/lib/gcc-cross/riscv64-linux-gnu/12/../../../../riscv64-linux-gnu/lib/libc.a(single_threaded.o)
 .note.GNU-stack
                0x0000000000000000        0x0 /usr/lib/gcc-cross/riscv64-linux-gnu/12/../../../../riscv64-linux-gnu/lib/libc.a(wctrans.o)
 .note.GNU-stack
                0x0000000000000000        0x0 /usr/lib/gcc-cross/riscv64-linux-gnu/12/../../../../riscv64-linux-gnu/lib/libc.a(towctrans.o)
 .note.GNU-stack
                0x0000000000000000        0x0 /usr/lib/gcc-cross/riscv64-linux-gnu/12/../../../../riscv64-linux-gnu/lib/libc.a(readonly-area.o)
 .note.GNU-stack
                0x0000000000000000        0x0 /usr/lib/gcc-cross/riscv64-linux-gnu/12/../../../../riscv64-linux-gnu/lib/libc.a(dl-exception.o)
 .note.GNU-stack
                0x0000000000000000        0x0 /usr/lib/gcc-cross/riscv64-linux-gnu/12/../../../../riscv64-linux-gnu/lib/libc.a(dl-load.o)
 .note.GNU-stack
                0x0000000000000000        0x0 /usr/lib/gcc-cross/riscv64-linux-gnu/12/../../../../riscv64-linux-gnu/lib/libc.a(dl-lookup.o)
 .note.GNU-stack
                0x0000000000000000        0x0 /usr/lib/gcc-cross/riscv64-linux-gnu/12/../../../../riscv64-linux-gnu/lib/libc.a(dl-minimal-malloc.o)
 .note.GNU-stack
                0x0000000000000000        0x0 /usr/lib/gcc-cross/riscv64-linux-gnu/12/../../../../riscv64-linux-gnu/lib/libc.a(dl-misc.o)
 .note.GNU-stack
                0x0000000000000000        0x0 /usr/lib/gcc-cross/riscv64-linux-gnu/12/../../../../riscv64-linux-gnu/lib/libc.a(dl-object.o)
 .note.GNU-stack
                0x0000000000000000        0x0 /usr/lib/gcc-cross/riscv64-linux-gnu/12/../../../../riscv64-linux-gnu/lib/libc.a(dl-origin.o)
 .note.GNU-stack
                0x0000000000000000        0x0 /usr/lib/gcc-cross/riscv64-linux-gnu/12/../../../../riscv64-linux-gnu/lib/libc.a(dl-printf.o)
 .note.GNU-stack
                0x0000000000000000        0x0 /usr/lib/gcc-cross/riscv64-linux-gnu/12/../../../../riscv64-linux-gnu/lib/libc.a(dl-profile.o)
 .note.GNU-stack
                0x0000000000000000        0x0 /usr/lib/gcc-cross/riscv64-linux-gnu/12/../../../../riscv64-linux-gnu/lib/libc.a(dl-reloc.o)
 .note.GNU-stack
                0x0000000000000000        0x0 /usr/lib/gcc-cross/riscv64-linux-gnu/12/../../../../riscv64-linux-gnu/lib/libc.a(dl-scope.o)
 .note.GNU-stack
                0x0000000000000000        0x0 /usr/lib/gcc-cross/riscv64-linux-gnu/12/../../../../riscv64-linux-gnu/lib/libc.a(dl-setup_hash.o)
 .note.GNU-stack
                0x0000000000000000        0x0 /usr/lib/gcc-cross/riscv64-linux-gnu/12/../../../../riscv64-linux-gnu/lib/libc.a(dl-thread_gscope_wait.o)
 .note.GNU-stack
                0x0000000000000000        0x0 /usr/lib/gcc-cross/riscv64-linux-gnu/12/../../../../riscv64-linux-gnu/lib/libc.a(dl-trampoline.o)
 .note.GNU-stack
                0x0000000000000000        0x0 /usr/lib/gcc-cross/riscv64-linux-gnu/12/../../../../riscv64-linux-gnu/lib/libc.a(dl-cache.o)
 .note.GNU-stack
                0x0000000000000000        0x0 /usr/lib/gcc-cross/riscv64-linux-gnu/12/../../../../riscv64-linux-gnu/lib/libc.a(dl-libc.o)
 .note.GNU-stack
                0x0000000000000000        0x0 /usr/lib/gcc-cross/riscv64-linux-gnu/12/../../../../riscv64-linux-gnu/lib/libc.a(lc-numeric.o)
 .note.GNU-stack
                0x0000000000000000        0x0 /usr/lib/gcc-cross/riscv64-linux-gnu/12/../../../../riscv64-linux-gnu/lib/libc.a(C-messages.o)
 .note.GNU-stack
                0x0000000000000000        0x0 /usr/lib/gcc-cross/riscv64-linux-gnu/12/../../../../riscv64-linux-gnu/lib/libc.a(C-monetary.o)
 .note.GNU-stack
                0x0000000000000000        0x0 /usr/lib/gcc-cross/riscv64-linux-gnu/12/../../../../riscv64-linux-gnu/lib/libc.a(C-numeric.o)
 .note.GNU-stack
                0x0000000000000000        0x0 /usr/lib/gcc-cross/riscv64-linux-gnu/12/../../../../riscv64-linux-gnu/lib/libc.a(C-time.o)
 .note.GNU-stack
                0x0000000000000000        0x0 /usr/lib/gcc-cross/riscv64-linux-gnu/12/../../../../riscv64-linux-gnu/lib/libc.a(C-paper.o)
 .note.GNU-stack
                0x0000000000000000        0x0 /usr/lib/gcc-cross/riscv64-linux-gnu/12/../../../../riscv64-linux-gnu/lib/libc.a(C-name.o)
 .note.GNU-stack
                0x0000000000000000        0x0 /usr/lib/gcc-cross/riscv64-linux-gnu/12/../../../../riscv64-linux-gnu/lib/libc.a(C-address.o)
 .note.GNU-stack
                0x0000000000000000        0x0 /usr/lib/gcc-cross/riscv64-linux-gnu/12/../../../../riscv64-linux-gnu/lib/libc.a(C-telephone.o)
 .note.GNU-stack
                0x0000000000000000        0x0 /usr/lib/gcc-cross/riscv64-linux-gnu/12/../../../../riscv64-linux-gnu/lib/libc.a(C-measurement.o)
 .note.GNU-stack
                0x0000000000000000        0x0 /usr/lib/gcc-cross/riscv64-linux-gnu/12/../../../../riscv64-linux-gnu/lib/libc.a(C-identification.o)
 .note.GNU-stack
                0x0000000000000000        0x0 /usr/lib/gcc-cross/riscv64-linux-gnu/12/../../../../riscv64-linux-gnu/lib/libc.a(C-collate.o)
 .note.GNU-stack
                0x0000000000000000        0x0 /usr/lib/gcc-cross/riscv64-linux-gnu/12/../../../../riscv64-linux-gnu/lib/libc.a(_itoa.o)
 .note.GNU-stack
                0x0000000000000000        0x0 /usr/lib/gcc-cross/riscv64-linux-gnu/12/../../../../riscv64-linux-gnu/lib/libc.a(itoa-digits.o)
 .note.GNU-stack
                0x0000000000000000        0x0 /usr/lib/gcc-cross/riscv64-linux-gnu/12/../../../../riscv64-linux-gnu/lib/libc.a(itoa-udigits.o)
 .note.GNU-stack
                0x0000000000000000        0x0 /usr/lib/gcc-cross/riscv64-linux-gnu/12/../../../../riscv64-linux-gnu/lib/libc.a(itowa-digits.o)
 .note.GNU-stack
                0x0000000000000000        0x0 /usr/lib/gcc-cross/riscv64-linux-gnu/12/../../../../riscv64-linux-gnu/lib/libc.a(printf_fp.o)
 .note.GNU-stack
                0x0000000000000000        0x0 /usr/lib/gcc-cross/riscv64-linux-gnu/12/../../../../riscv64-linux-gnu/lib/libc.a(reg-printf.o)
 .note.GNU-stack
                0x0000000000000000        0x0 /usr/lib/gcc-cross/riscv64-linux-gnu/12/../../../../riscv64-linux-gnu/lib/libc.a(printf_fphex.o)
 .note.GNU-stack
                0x0000000000000000        0x0 /usr/lib/gcc-cross/riscv64-linux-gnu/12/../../../../riscv64-linux-gnu/lib/libc.a(reg-modifier.o)
 .note.GNU-stack
                0x0000000000000000        0x0 /usr/lib/gcc-cross/riscv64-linux-gnu/12/../../../../riscv64-linux-gnu/lib/libc.a(reg-type.o)
 .note.GNU-stack
                0x0000000000000000        0x0 /usr/lib/gcc-cross/riscv64-linux-gnu/12/../../../../riscv64-linux-gnu/lib/libc.a(snprintf.o)
 .note.GNU-stack
                0x0000000000000000        0x0 /usr/lib/gcc-cross/riscv64-linux-gnu/12/../../../../riscv64-linux-gnu/lib/libc.a(funlockfile.o)
 .note.GNU-stack
                0x0000000000000000        0x0 /usr/lib/gcc-cross/riscv64-linux-gnu/12/../../../../riscv64-linux-gnu/lib/libc.a(vsnprintf.o)
 .note.GNU-stack
                0x0000000000000000        0x0 /usr/lib/gcc-cross/riscv64-linux-gnu/12/../../../../riscv64-linux-gnu/lib/libc.a(cleanup_compat.o)
 .note.GNU-stack
                0x0000000000000000        0x0 /usr/lib/gcc-cross/riscv64-linux-gnu/12/../../../../riscv64-linux-gnu/lib/libc.a(nptl-stack.o)
 .note.GNU-stack
                0x0000000000000000        0x0 /usr/lib/gcc-cross/riscv64-linux-gnu/12/../../../../riscv64-linux-gnu/lib/libc.a(strspn.o)
 .note.GNU-stack
                0x0000000000000000        0x0 /usr/lib/gcc-cross/riscv64-linux-gnu/12/../../../../riscv64-linux-gnu/lib/libc.a(strsep.o)
 .note.GNU-stack
                0x0000000000000000        0x0 /usr/lib/gcc-cross/riscv64-linux-gnu/12/../../../../riscv64-linux-gnu/lib/libc.a(wmemchr.o)
 .note.GNU-stack
                0x0000000000000000        0x0 /usr/lib/gcc-cross/riscv64-linux-gnu/12/../../../../riscv64-linux-gnu/lib/libc.a(wmemset.o)
 .note.GNU-stack
                0x0000000000000000        0x0 /usr/lib/gcc-cross/riscv64-linux-gnu/12/../../../../riscv64-linux-gnu/lib/libc.a(stat64.o)
 .note.GNU-stack
                0x0000000000000000        0x0 /usr/lib/gcc-cross/riscv64-linux-gnu/12/../../../../riscv64-linux-gnu/lib/libc.a(profil.o)
 .note.GNU-stack
                0x0000000000000000        0x0 /usr/lib/gcc-cross/riscv64-linux-gnu/12/../../../../riscv64-linux-gnu/lib/libc.a(prof-freq.o)
 .note.GNU-stack
                0x0000000000000000        0x0 /usr/lib/gcc-cross/riscv64-linux-gnu/12/../../../../riscv64-linux-gnu/lib/libc.a(dl-close.o)
 .note.GNU-stack
                0x0000000000000000        0x0 /usr/lib/gcc-cross/riscv64-linux-gnu/12/../../../../riscv64-linux-gnu/lib/libc.a(dl-execstack.o)
 .note.GNU-stack
                0x0000000000000000        0x0 /usr/lib/gcc-cross/riscv64-linux-gnu/12/../../../../riscv64-linux-gnu/lib/libc.a(dl-find_object.o)
 .note.GNU-stack
                0x0000000000000000        0x0 /usr/lib/gcc-cross/riscv64-linux-gnu/12/../../../../riscv64-linux-gnu/lib/libc.a(dl-open.o)
 .note.GNU-stack
                0x0000000000000000        0x0 /usr/lib/gcc-cross/riscv64-linux-gnu/12/../../../../riscv64-linux-gnu/lib/libc.a(dl-runtime.o)
 .note.GNU-stack
                0x0000000000000000        0x0 /usr/lib/gcc-cross/riscv64-linux-gnu/12/../../../../riscv64-linux-gnu/lib/libc.a(dl-sort-maps.o)
 .note.GNU-stack
                0x0000000000000000        0x0 /usr/lib/gcc-cross/riscv64-linux-gnu/12/../../../../riscv64-linux-gnu/lib/libc.a(dl-version.o)
 .note.GNU-stack
                0x0000000000000000        0x0 /usr/lib/gcc-cross/riscv64-linux-gnu/12/../../../../riscv64-linux-gnu/lib/libc.a(dl-addr-obj.o)
 .note.GNU-stack
                0x0000000000000000        0x0 /usr/lib/gcc-cross/riscv64-linux-gnu/12/../../../../riscv64-linux-gnu/lib/libc.a(rtld_static_init.o)
 .note.GNU-stack
                0x0000000000000000        0x0 /usr/lib/gcc-cross/riscv64-linux-gnu/12/../../../../riscv64-linux-gnu/lib/libc.a(lc-monetary.o)
 .note.GNU-stack
                0x0000000000000000        0x0 /usr/lib/gcc-cross/riscv64-linux-gnu/12/../../../../riscv64-linux-gnu/lib/libc.a(cmp.o)
 .note.GNU-stack
                0x0000000000000000        0x0 /usr/lib/gcc-cross/riscv64-linux-gnu/12/../../../../riscv64-linux-gnu/lib/libc.a(divrem.o)
 .note.GNU-stack
                0x0000000000000000        0x0 /usr/lib/gcc-cross/riscv64-linux-gnu/12/../../../../riscv64-linux-gnu/lib/libc.a(lshift.o)
 .note.GNU-stack
                0x0000000000000000        0x0 /usr/lib/gcc-cross/riscv64-linux-gnu/12/../../../../riscv64-linux-gnu/lib/libc.a(rshift.o)
 .note.GNU-stack
                0x0000000000000000        0x0 /usr/lib/gcc-cross/riscv64-linux-gnu/12/../../../../riscv64-linux-gnu/lib/libc.a(mul.o)
 .note.GNU-stack
                0x0000000000000000        0x0 /usr/lib/gcc-cross/riscv64-linux-gnu/12/../../../../riscv64-linux-gnu/lib/libc.a(mul_1.o)
 .note.GNU-stack
                0x0000000000000000        0x0 /usr/lib/gcc-cross/riscv64-linux-gnu/12/../../../../riscv64-linux-gnu/lib/libc.a(mul_n.o)
 .note.GNU-stack
                0x0000000000000000        0x0 /usr/lib/gcc-cross/riscv64-linux-gnu/12/../../../../riscv64-linux-gnu/lib/libc.a(sub_n.o)
 .note.GNU-stack
                0x0000000000000000        0x0 /usr/lib/gcc-cross/riscv64-linux-gnu/12/../../../../riscv64-linux-gnu/lib/libc.a(submul_1.o)
 .note.GNU-stack
                0x0000000000000000        0x0 /usr/lib/gcc-cross/riscv64-linux-gnu/12/../../../../riscv64-linux-gnu/lib/libc.a(dbl2mpn.o)
 .note.GNU-stack
                0x0000000000000000        0x0 /usr/lib/gcc-cross/riscv64-linux-gnu/12/../../../../riscv64-linux-gnu/lib/libc.a(ldbl2mpn.o)
 .note.GNU-stack
                0x0000000000000000        0x0 /usr/lib/gcc-cross/riscv64-linux-gnu/12/../../../../riscv64-linux-gnu/lib/libc.a(fpioconst.o)
 .note.GNU-stack
                0x0000000000000000        0x0 /usr/lib/gcc-cross/riscv64-linux-gnu/12/../../../../riscv64-linux-gnu/lib/libc.a(mp_clz_tab.o)
 .note.GNU-stack
                0x0000000000000000        0x0 /usr/lib/gcc-cross/riscv64-linux-gnu/12/../../../../riscv64-linux-gnu/lib/libc.a(dladdr.o)
 .note.GNU-stack
                0x0000000000000000        0x0 /usr/lib/gcc-cross/riscv64-linux-gnu/12/../../../../riscv64-linux-gnu/lib/libc.a(dladdr1.o)
 .note.GNU-stack
                0x0000000000000000        0x0 /usr/lib/gcc-cross/riscv64-linux-gnu/12/../../../../riscv64-linux-gnu/lib/libc.a(dlclose.o)
 .note.GNU-stack
                0x0000000000000000        0x0 /usr/lib/gcc-cross/riscv64-linux-gnu/12/../../../../riscv64-linux-gnu/lib/libc.a(dlerror.o)
 .note.GNU-stack
                0x0000000000000000        0x0 /usr/lib/gcc-cross/riscv64-linux-gnu/12/../../../../riscv64-linux-gnu/lib/libc.a(dlinfo.o)
 .gnu.warning.dlmopen
                0x0000000000000000        0x0 /usr/lib/gcc-cross/riscv64-linux-gnu/12/../../../../riscv64-linux-gnu/lib/libc.a(dlmopen.o)
 .note.GNU-stack
                0x0000000000000000        0x0 /usr/lib/gcc-cross/riscv64-linux-gnu/12/../../../../riscv64-linux-gnu/lib/libc.a(dlmopen.o)
 .gnu.warning.dlopen
                0x0000000000000000        0x0 /usr/lib/gcc-cross/riscv64-linux-gnu/12/../../../../riscv64-linux-gnu/lib/libc.a(dlopen.o)
 .note.GNU-stack
                0x0000000000000000        0x0 /usr/lib/gcc-cross/riscv64-linux-gnu/12/../../../../riscv64-linux-gnu/lib/libc.a(dlopen.o)
 .note.GNU-stack
                0x0000000000000000        0x0 /usr/lib/gcc-cross/riscv64-linux-gnu/12/../../../../riscv64-linux-gnu/lib/libc.a(dlsym.o)
 .note.GNU-stack
                0x0000000000000000        0x0 /usr/lib/gcc-cross/riscv64-linux-gnu/12/../../../../riscv64-linux-gnu/lib/libc.a(dlvsym.o)
 .note.GNU-stack
                0x0000000000000000        0x0 /usr/lib/gcc-cross/riscv64-linux-gnu/12/../../../../riscv64-linux-gnu/lib/libc.a(libc_dlerror_result.o)
 .note.GNU-stack
                0x0000000000000000        0x0 /usr/lib/gcc-cross/riscv64-linux-gnu/12/../../../../riscv64-linux-gnu/lib/libc.a(setitimer.o)
 .note.GNU-stack
                0x0000000000000000        0x0 /usr/lib/gcc-cross/riscv64-linux-gnu/12/../../../../riscv64-linux-gnu/lib/libc.a(dl-call-libc-early-init.o)
 .note.GNU-stack
                0x0000000000000000        0x0 /usr/lib/gcc-cross/riscv64-linux-gnu/12/../../../../riscv64-linux-gnu/lib/libc.a(dl-deps.o)
 .note.GNU-stack
                0x0000000000000000        0x0 /usr/lib/gcc-cross/riscv64-linux-gnu/12/../../../../riscv64-linux-gnu/lib/libc.a(dl-init.o)
 .note.GNU-stack
                0x0000000000000000        0x0 /usr/lib/gcc-cross/riscv64-linux-gnu/12/../../../../riscv64-linux-gnu/lib/libc.a(dl-lookup-direct.o)
 .note.GNU-stack
                0x0000000000000000        0x0 /usr/lib/gcc-cross/riscv64-linux-gnu/12/../../../../riscv64-linux-gnu/lib/libc.a(dl-addr.o)
 .note.GNU-stack
                0x0000000000000000        0x0 /usr/lib/gcc-cross/riscv64-linux-gnu/12/../../../../riscv64-linux-gnu/lib/libc.a(dl-sym.o)
 .note.GNU-stack
                0x0000000000000000        0x0 /usr/lib/gcc-cross/riscv64-linux-gnu/12/../../../../riscv64-linux-gnu/lib/libc.a(add_n.o)
 .note.GNU-stack
                0x0000000000000000        0x0 /usr/lib/gcc-cross/riscv64-linux-gnu/12/../../../../riscv64-linux-gnu/lib/libc.a(addmul_1.o)
 .note.GNU-stack
                0x0000000000000000        0x0 /usr/lib/gcc-cross/riscv64-linux-gnu/12/libgcc.a(_ctzsi2.o)
 .note.GNU-stack
                0x0000000000000000        0x0 /usr/lib/gcc-cross/riscv64-linux-gnu/12/libgcc.a(_bswapsi2.o)
 .note.GNU-stack
                0x0000000000000000        0x0 /usr/lib/gcc-cross/riscv64-linux-gnu/12/libgcc.a(letf2.o)
 .note.GNU-stack
                0x0000000000000000        0x0 /usr/lib/gcc-cross/riscv64-linux-gnu/12/libgcc.a(unordtf2.o)
 .note.GNU-stack
                0x0000000000000000        0x0 /usr/lib/gcc-cross/riscv64-linux-gnu/12/libgcc_eh.a(unwind-dw2.o)
 .note.GNU-stack
                0x0000000000000000        0x0 /usr/lib/gcc-cross/riscv64-linux-gnu/12/libgcc_eh.a(unwind-dw2-fde-dip.o)
 .note.GNU-stack
                0x0000000000000000        0x0 /usr/lib/gcc-cross/riscv64-linux-gnu/12/libgcc_eh.a(unwind-c.o)
 .note.GNU-stack
                0x0000000000000000        0x0 /usr/lib/gcc-cross/riscv64-linux-gnu/12/crtend.o

Memory Configuration

Name             Origin             Length             Attributes
*default*        0x0000000000000000 0xffffffffffffffff

Linker script and memory map

LOAD /usr/lib/gcc-cross/riscv64-linux-gnu/12/../../../../riscv64-linux-gnu/lib/crt1.o
LOAD /usr/lib/gcc-cross/riscv64-linux-gnu/12/crti.o
LOAD /usr/lib/gcc-cross/riscv64-linux-gnu/12/crtbeginT.o
LOAD sum.elf-sum.o
START GROUP
LOAD /usr/lib/gcc-cross/riscv64-linux-gnu/12/libgcc.a
LOAD /usr/lib/gcc-cross/riscv64-linux-gnu/12/libgcc_eh.a
LOAD /usr/lib/gcc-cross/riscv64-linux-gnu/12/../../../../riscv64-linux-gnu/lib/libc.a
END GROUP
LOAD /usr/lib/gcc-cross/riscv64-linux-gnu/12/crtend.o
LOAD /usr/lib/gcc-cross/riscv64-linux-gnu/12/crtn.o
                [!provide]                        PROVIDE (__executable_start = SEGMENT_START ("text-segment", 0x10000))
                0x00000000000101c8                . = (SEGMENT_START ("text-segment", 0x10000) + SIZEOF_HEADERS)

.interp
 *(.interp)

.note.gnu.build-id
                0x00000000000101c8       0x24
 *(.note.gnu.build-id)
 .note.gnu.build-id
                0x00000000000101c8       0x24 /usr/lib/gcc-cross/riscv64-linux-gnu/12/../../../../riscv64-linux-gnu/lib/crt1.o

.note.ABI-tag   0x00000000000101ec       0x20
 .note.ABI-tag  0x00000000000101ec       0x20 /usr/lib/gcc-cross/riscv64-linux-gnu/12/../../../../riscv64-linux-gnu/lib/crt1.o

.hash
 *(.hash)

.gnu.hash
 *(.gnu.hash)

.dynsym
 *(.dynsym)

.dynstr
 *(.dynstr)

.gnu.version
 *(.gnu.version)

.gnu.version_d
 *(.gnu.version_d)

.gnu.version_r
 *(.gnu.version_r)

.rela.dyn       0x0000000000010210      0x210
 *(.rela.init)
 *(.rela.text .rela.text.* .rela.gnu.linkonce.t.*)
 .rela.text     0x0000000000010210        0x0 /usr/lib/gcc-cross/riscv64-linux-gnu/12/../../../../riscv64-linux-gnu/lib/crt1.o
 *(.rela.fini)
 *(.rela.rodata .rela.rodata.* .rela.gnu.linkonce.r.*)
 *(.rela.data .rela.data.* .rela.gnu.linkonce.d.*)
 .rela.data.rel.ro
                0x0000000000010210        0x0 /usr/lib/gcc-cross/riscv64-linux-gnu/12/../../../../riscv64-linux-gnu/lib/crt1.o
 *(.rela.tdata .rela.tdata.* .rela.gnu.linkonce.td.*)
 *(.rela.tbss .rela.tbss.* .rela.gnu.linkonce.tb.*)
 *(.rela.ctors)
 *(.rela.dtors)
 *(.rela.got)
 .rela.got      0x0000000000010210      0x210 /usr/lib/gcc-cross/riscv64-linux-gnu/12/../../../../riscv64-linux-gnu/lib/crt1.o
 *(.rela.sdata .rela.sdata.* .rela.gnu.linkonce.s.*)
 *(.rela.sbss .rela.sbss.* .rela.gnu.linkonce.sb.*)
 *(.rela.sdata2 .rela.sdata2.* .rela.gnu.linkonce.s2.*)
 *(.rela.sbss2 .rela.sbss2.* .rela.gnu.linkonce.sb2.*)
 *(.rela.bss .rela.bss.* .rela.gnu.linkonce.b.*)
 *(.rela.ifunc)
 .rela__libc_IO_vtables
                0x0000000000010420        0x0 /usr/lib/gcc-cross/riscv64-linux-gnu/12/../../../../riscv64-linux-gnu/lib/crt1.o

.rela.plt       0x0000000000010420        0x0
 *(.rela.plt)
                0x0000000000010420                PROVIDE (__rela_iplt_start = .)
 *(.rela.iplt)
                0x0000000000010420                PROVIDE (__rela_iplt_end = .)

.init
 *(SORT_NONE(.init))

.plt
 *(.plt)
 *(.iplt)

.text           0x0000000000010420    0x40a5a
 *(.text.unlikely .text.*_unlikely .text.unlikely.*)
 .text.unlikely
                0x0000000000010420      0x124 /usr/lib/gcc-cross/riscv64-linux-gnu/12/../../../../riscv64-linux-gnu/lib/libc.a(abort.o)
                0x0000000000010420                abort
 .text.unlikely
                0x0000000000010544        0x8 /usr/lib/gcc-cross/riscv64-linux-gnu/12/../../../../riscv64-linux-gnu/lib/libc.a(init-first.o)
                0x0000000000010544                _dl_start
 *(.text.exit .text.exit.*)
 *(.text.startup .text.startup.*)
 .text.startup  0x000000000001054c        0x4 sum.elf-sum.o
                0x000000000001054c                main
 *(.text.hot .text.hot.*)
 *(SORT_BY_NAME(.text.sorted.*))
 *(.text .stub .text.* .gnu.linkonce.t.*)
 .text          0x0000000000010550       0x2e /usr/lib/gcc-cross/riscv64-linux-gnu/12/../../../../riscv64-linux-gnu/lib/crt1.o
                0x0000000000010550                _start
 .text          0x000000000001057e        0x0 /usr/lib/gcc-cross/riscv64-linux-gnu/12/crti.o
 .text          0x000000000001057e       0xb0 /usr/lib/gcc-cross/riscv64-linux-gnu/12/crtbeginT.o
 .text          0x000000000001062e        0x0 sum.elf-sum.o
 .text          0x000000000001062e      0x354 /usr/lib/gcc-cross/riscv64-linux-gnu/12/../../../../riscv64-linux-gnu/lib/libc.a(libc-start.o)
                0x00000000000106d4                __libc_start_main_impl
                0x00000000000106d4                __libc_start_main
 .text          0x0000000000010982       0xa8 /usr/lib/gcc-cross/riscv64-linux-gnu/12/../../../../riscv64-linux-gnu/lib/libc.a(check_fds.o)
                0x0000000000010a04                __libc_check_standard_fds
 .text          0x0000000000010a2a      0x1c6 /usr/lib/gcc-cross/riscv64-linux-gnu/12/../../../../riscv64-linux-gnu/lib/libc.a(libc-tls.o)
                0x0000000000010a2a                __libc_setup_tls
                0x0000000000010bdc                __tls_get_addr
 .text          0x0000000000010bf0        0x0 /usr/lib/gcc-cross/riscv64-linux-gnu/12/../../../../riscv64-linux-gnu/lib/libc.a(errno.o)
 .text          0x0000000000010bf0      0x13c /usr/lib/gcc-cross/riscv64-linux-gnu/12/../../../../riscv64-linux-gnu/lib/libc.a(assert.o)
                0x0000000000010bf0                __assert_fail_base
                0x0000000000010cf6                __assert_fail
 .text          0x0000000000010d2c        0xc /usr/lib/gcc-cross/riscv64-linux-gnu/12/../../../../riscv64-linux-gnu/lib/libc.a(dcgettext.o)
                0x0000000000010d2c                __dcgettext
                0x0000000000010d2c                dcgettext
 .text          0x0000000000010d38      0xdc0 /usr/lib/gcc-cross/riscv64-linux-gnu/12/../../../../riscv64-linux-gnu/lib/libc.a(dcigettext.o)
                0x0000000000010ee0                _nl_find_msg
                0x0000000000011576                __dcigettext
 .text          0x0000000000011af8      0x190 /usr/lib/gcc-cross/riscv64-linux-gnu/12/../../../../riscv64-linux-gnu/lib/libc.a(finddomain.o)
                0x0000000000011af8                _nl_find_domain
 .text          0x0000000000011c88     0x115c /usr/lib/gcc-cross/riscv64-linux-gnu/12/../../../../riscv64-linux-gnu/lib/libc.a(loadmsgcat.o)
                0x0000000000011c88                _nl_load_domain
 .text          0x0000000000012de4      0x516 /usr/lib/gcc-cross/riscv64-linux-gnu/12/../../../../riscv64-linux-gnu/lib/libc.a(localealias.o)
                0x00000000000131a6                _nl_expand_alias
 .text          0x00000000000132fa      0x4d2 /usr/lib/gcc-cross/riscv64-linux-gnu/12/../../../../riscv64-linux-gnu/lib/libc.a(l10nflist.o)
                0x00000000000132fa                _nl_make_l10nflist
                0x00000000000136d0                _nl_normalize_codeset
 .text          0x00000000000137cc      0x17a /usr/lib/gcc-cross/riscv64-linux-gnu/12/../../../../riscv64-linux-gnu/lib/libc.a(explodename.o)
                0x00000000000137cc                _nl_explode_name
 .text          0x0000000000013946      0x71e /usr/lib/gcc-cross/riscv64-linux-gnu/12/../../../../riscv64-linux-gnu/lib/libc.a(plural.o)
                0x0000000000013946                __gettext_free_exp
                0x0000000000013990                __gettextparse
 .text          0x0000000000014064       0xda /usr/lib/gcc-cross/riscv64-linux-gnu/12/../../../../riscv64-linux-gnu/lib/libc.a(plural-exp.o)
                0x0000000000014064                __gettext_extract_plural
 .text          0x000000000001413e       0x44 /usr/lib/gcc-cross/riscv64-linux-gnu/12/../../../../riscv64-linux-gnu/lib/libc.a(hash-string.o)
                0x000000000001413e                __hash_string
 *fill*         0x0000000000014182        0x2 
 .text          0x0000000000014184       0x6c /usr/lib/gcc-cross/riscv64-linux-gnu/12/../../../../riscv64-linux-gnu/lib/libc.a(setjmp.o)
                0x0000000000014184                __GI__setjmp
                0x0000000000014184                _setjmp
                0x0000000000014188                setjmp
                0x000000000001418c                __sigsetjmp
 .text          0x00000000000141f0       0x36 /usr/lib/gcc-cross/riscv64-linux-gnu/12/../../../../riscv64-linux-gnu/lib/libc.a(sigjmp.o)
                0x00000000000141f0                __sigjmp_save
 .text          0x0000000000014226       0x2c /usr/lib/gcc-cross/riscv64-linux-gnu/12/../../../../riscv64-linux-gnu/lib/libc.a(raise.o)
                0x0000000000014226                gsignal
                0x0000000000014226                raise
 .text          0x0000000000014252       0x20 /usr/lib/gcc-cross/riscv64-linux-gnu/12/../../../../riscv64-linux-gnu/lib/libc.a(sigprocmask.o)
                0x0000000000014252                __sigprocmask
                0x0000000000014252                sigprocmask
 .text          0x0000000000014272        0x0 /usr/lib/gcc-cross/riscv64-linux-gnu/12/../../../../riscv64-linux-gnu/lib/libc.a(abort.o)
 .text          0x0000000000014272      0x444 /usr/lib/gcc-cross/riscv64-linux-gnu/12/../../../../riscv64-linux-gnu/lib/libc.a(msort.o)
                0x0000000000014450                __qsort_r
                0x0000000000014450                qsort_r
                0x00000000000146b2                qsort
 .text          0x00000000000146b6       0xd8 /usr/lib/gcc-cross/riscv64-linux-gnu/12/../../../../riscv64-linux-gnu/lib/libc.a(getenv.o)
                0x00000000000146b6                getenv
 .text          0x000000000001478e      0x1f2 /usr/lib/gcc-cross/riscv64-linux-gnu/12/../../../../riscv64-linux-gnu/lib/libc.a(exit.o)
                0x000000000001478e                __run_exit_handlers
                0x000000000001496c                exit
 .text          0x0000000000014980      0x182 /usr/lib/gcc-cross/riscv64-linux-gnu/12/../../../../riscv64-linux-gnu/lib/libc.a(cxa_atexit.o)
                0x0000000000014980                __new_exitfn
                0x0000000000014a3e                __internal_atexit
                0x0000000000014af8                __cxa_atexit
 .text          0x0000000000014b02       0x1e /usr/lib/gcc-cross/riscv64-linux-gnu/12/../../../../riscv64-linux-gnu/lib/libc.a(strtoul.o)
                0x0000000000014b02                __strtoull_internal
                0x0000000000014b02                __strtoul_internal
                0x0000000000014b10                strtoumax
                0x0000000000014b10                strtoul
                0x0000000000014b10                strtoull
                0x0000000000014b10                strtouq
                0x0000000000014b10                __strtoul
 .text          0x0000000000014b20      0x354 /usr/lib/gcc-cross/riscv64-linux-gnu/12/../../../../riscv64-linux-gnu/lib/libc.a(strtoul_l.o)
                0x0000000000014b20                ____strtoul_l_internal
                0x0000000000014b20                ____strtoull_l_internal
                0x0000000000014e6e                __strtoull_l
                0x0000000000014e6e                strtoull_l
                0x0000000000014e6e                strtoul_l
                0x0000000000014e6e                __strtoul_l
 .text          0x0000000000014e74      0x180 /usr/lib/gcc-cross/riscv64-linux-gnu/12/../../../../riscv64-linux-gnu/lib/libc.a(grouping.o)
                0x0000000000014e74                __correctly_grouped_prefixmb
 .text          0x0000000000014ff4       0x44 /usr/lib/gcc-cross/riscv64-linux-gnu/12/../../../../riscv64-linux-gnu/lib/libc.a(asprintf.o)
                0x0000000000014ff4                __asprintf
                0x0000000000014ff4                asprintf
                0x0000000000014ff4                ___asprintf
 .text          0x0000000000015038      0x2dc /usr/lib/gcc-cross/riscv64-linux-gnu/12/../../../../riscv64-linux-gnu/lib/libc.a(fxprintf.o)
                0x0000000000015158                __vfxprintf
                0x00000000000151f8                __fxprintf
                0x000000000001523c                __fxprintf_nocancel
 .text          0x0000000000015314      0x1cc /usr/lib/gcc-cross/riscv64-linux-gnu/12/../../../../riscv64-linux-gnu/lib/libc.a(iofclose.o)
                0x0000000000015314                _IO_fclose
                0x0000000000015314                _IO_new_fclose
                0x0000000000015314                fclose
                0x0000000000015314                __new_fclose
 .text          0x00000000000154e0       0xe8 /usr/lib/gcc-cross/riscv64-linux-gnu/12/../../../../riscv64-linux-gnu/lib/libc.a(iofflush.o)
                0x00000000000154e0                _IO_fflush
                0x00000000000154e0                fflush
 .text          0x00000000000155c8       0xfc /usr/lib/gcc-cross/riscv64-linux-gnu/12/../../../../riscv64-linux-gnu/lib/libc.a(iofopen.o)
                0x00000000000155c8                __fopen_maybe_mmap
                0x0000000000015600                __fopen_internal
                0x00000000000156c0                _IO_fopen64
                0x00000000000156c0                _IO_new_fopen
                0x00000000000156c0                fopen
                0x00000000000156c0                _IO_fopen
                0x00000000000156c0                __new_fopen
                0x00000000000156c0                fopen64
 .text          0x00000000000156c4     0x10be /usr/lib/gcc-cross/riscv64-linux-gnu/12/../../../../riscv64-linux-gnu/lib/libc.a(wfileops.o)
                0x00000000000156c4                _IO_wfile_underflow
                0x0000000000015bf8                _IO_wfile_seekoff
                0x0000000000016252                _IO_wdo_write
                0x00000000000163ac                _IO_wfile_overflow
                0x000000000001657e                _IO_wfile_sync
                0x0000000000016682                _IO_wfile_xsputn
 .text          0x0000000000016782      0x336 /usr/lib/gcc-cross/riscv64-linux-gnu/12/../../../../riscv64-linux-gnu/lib/libc.a(iofwide.o)
                0x0000000000016782                _IO_fwide
                0x00000000000168b4                __libio_codecvt_out
                0x000000000001695c                __libio_codecvt_in
                0x0000000000016a04                __libio_codecvt_encoding
                0x0000000000016a1a                __libio_codecvt_length
 .text          0x0000000000016ab8      0x118 /usr/lib/gcc-cross/riscv64-linux-gnu/12/../../../../riscv64-linux-gnu/lib/libc.a(vasprintf.o)
                0x0000000000016ab8                __vasprintf_internal
                0x0000000000016bcc                __vasprintf
                0x0000000000016bcc                vasprintf
 .text          0x0000000000016bd0      0x1fe /usr/lib/gcc-cross/riscv64-linux-gnu/12/../../../../riscv64-linux-gnu/lib/libc.a(libc_fatal.o)
                0x0000000000016bd0                __libc_message
                0x0000000000016db0                __libc_fatal
 .text          0x0000000000016dce       0x1c /usr/lib/gcc-cross/riscv64-linux-gnu/12/../../../../riscv64-linux-gnu/lib/libc.a(vtables.o)
                0x0000000000016dce                _IO_vtable_check
 .text          0x0000000000016dea       0x82 /usr/lib/gcc-cross/riscv64-linux-gnu/12/../../../../riscv64-linux-gnu/lib/libc.a(iofgets_u.o)
                0x0000000000016dea                __fgets_unlocked
                0x0000000000016dea                fgets_unlocked
 .text          0x0000000000016e6c     0x1962 /usr/lib/gcc-cross/riscv64-linux-gnu/12/../../../../riscv64-linux-gnu/lib/libc.a(fileops.o)
                0x0000000000016eba                _IO_file_close
                0x0000000000016ec0                _IO_file_setbuf
                0x0000000000016ec0                _IO_new_file_setbuf
                0x0000000000016fdc                _IO_file_underflow
                0x0000000000016fdc                _IO_new_file_underflow
                0x0000000000017222                _IO_file_close_mmap
                0x00000000000173ac                _IO_file_seek
                0x000000000001752a                _IO_file_underflow_maybe_mmap
                0x00000000000175c6                _IO_file_seekoff
                0x00000000000175c6                _IO_new_file_seekoff
                0x0000000000017962                _IO_file_stat
                0x0000000000017968                _IO_file_write
                0x0000000000017968                _IO_new_file_write
                0x0000000000017ad6                _IO_file_xsgetn
                0x0000000000017c30                _IO_file_seekoff_mmap
                0x0000000000017cf6                _IO_file_underflow_mmap
                0x0000000000017d66                _IO_new_file_xsputn
                0x0000000000017d66                _IO_file_xsputn
                0x0000000000017ea0                _IO_file_read
                0x0000000000017eb0                _IO_file_setbuf_mmap
                0x0000000000017f0a                _IO_new_file_init_internal
                0x0000000000017f34                _IO_new_file_init
                0x0000000000017f34                _IO_file_init
                0x0000000000017f5e                _IO_file_open
                0x000000000001801a                _IO_new_file_attach
                0x000000000001801a                _IO_file_attach
                0x00000000000180b0                _IO_new_do_write
                0x00000000000180b0                _IO_do_write
                0x00000000000180d6                _IO_new_file_close_it
                0x00000000000180d6                _IO_file_close_it
                0x00000000000181f2                _IO_new_file_fopen
                0x00000000000181f2                _IO_file_fopen
                0x0000000000018568                _IO_file_finish
                0x0000000000018568                _IO_new_file_finish
                0x00000000000185dc                _IO_file_overflow
                0x00000000000185dc                _IO_new_file_overflow
                0x000000000001872e                _IO_file_sync
                0x000000000001872e                _IO_new_file_sync
 .text          0x00000000000187ce     0x1858 /usr/lib/gcc-cross/riscv64-linux-gnu/12/../../../../riscv64-linux-gnu/lib/libc.a(genops.o)
                0x0000000000018b30                _IO_un_link
                0x0000000000018b3c                _IO_link_in
                0x0000000000018cac                _IO_least_marker
                0x0000000000018cc4                _IO_switch_to_main_get_area
                0x0000000000018ce0                _IO_switch_to_backup_area
                0x0000000000018cfc                _IO_switch_to_get_mode
                0x0000000000018d76                _IO_free_backup_area
                0x0000000000018db2                __overflow
                0x0000000000018e00                __underflow
                0x0000000000018eec                __uflow
                0x0000000000018fe4                _IO_setb
                0x000000000001902e                _IO_doallocbuf
                0x00000000000190bc                _IO_default_underflow
                0x00000000000190c0                _IO_default_uflow
                0x000000000001910e                _IO_default_xsputn
                0x00000000000191e8                _IO_sgetn
                0x000000000001922e                _IO_default_xsgetn
                0x00000000000192c6                _IO_default_setbuf
                0x0000000000019376                _IO_default_seekpos
                0x00000000000193c2                _IO_default_doallocate
                0x0000000000019416                _IO_init_internal
                0x000000000001947e                _IO_init
                0x00000000000194e6                _IO_enable_locks
                0x000000000001950a                _IO_old_init
                0x0000000000019566                _IO_no_init
                0x000000000001960e                _IO_default_sync
                0x0000000000019612                _IO_default_finish
                0x0000000000019666                _IO_default_seekoff
                0x000000000001966a                _IO_sputbackc
                0x00000000000196d2                _IO_sungetc
                0x0000000000019738                _IO_adjust_column
                0x000000000001975c                _IO_flush_all_lockp
                0x000000000001993e                _IO_cleanup
                0x0000000000019b5a                _IO_flush_all
                0x0000000000019b5e                _IO_flush_all_linebuffered
                0x0000000000019b5e                _flushlbf
                0x0000000000019d1a                _IO_init_marker
                0x0000000000019d64                _IO_remove_marker
                0x0000000000019d86                _IO_marker_difference
                0x0000000000019d8e                _IO_marker_delta
                0x0000000000019db8                _IO_seekmark
                0x0000000000019e1a                _IO_unsave_markers
                0x0000000000019e62                _IO_default_pbackfail
                0x0000000000019f78                _IO_default_seek
                0x0000000000019f7c                _IO_default_stat
                0x0000000000019f80                _IO_default_read
                0x0000000000019f84                _IO_default_write
                0x0000000000019f88                _IO_default_showmanyc
                0x0000000000019f8c                _IO_default_imbue
                0x0000000000019f8e                _IO_iter_begin
                0x0000000000019f98                _IO_iter_end
                0x0000000000019f9c                _IO_iter_next
                0x0000000000019fa0                _IO_iter_file
                0x0000000000019fa2                _IO_list_lock
                0x0000000000019fe8                _IO_list_unlock
                0x000000000001a018                _IO_list_resetlock
 .text          0x000000000001a026        0x0 /usr/lib/gcc-cross/riscv64-linux-gnu/12/../../../../riscv64-linux-gnu/lib/libc.a(stdfiles.o)
 .text          0x000000000001a026        0x0 /usr/lib/gcc-cross/riscv64-linux-gnu/12/../../../../riscv64-linux-gnu/lib/libc.a(stdio.o)
 .text          0x000000000001a026      0x5de /usr/lib/gcc-cross/riscv64-linux-gnu/12/../../../../riscv64-linux-gnu/lib/libc.a(strops.o)
                0x000000000001a026                _IO_str_underflow
                0x000000000001a064                _IO_str_overflow
                0x000000000001a2cc                _IO_str_seekoff
                0x000000000001a44a                _IO_str_pbackfail
                0x000000000001a45e                _IO_str_finish
                0x000000000001a498                _IO_str_init_static_internal
                0x000000000001a510                _IO_str_init_static
                0x000000000001a590                _IO_str_init_readonly
                0x000000000001a5f2                _IO_str_count
 .text          0x000000000001a604       0x1e /usr/lib/gcc-cross/riscv64-linux-gnu/12/../../../../riscv64-linux-gnu/lib/libc.a(alloca_cutoff.o)
                0x000000000001a604                __libc_alloca_cutoff
 .text          0x000000000001a622       0x2e /usr/lib/gcc-cross/riscv64-linux-gnu/12/../../../../riscv64-linux-gnu/lib/libc.a(libc-cleanup.o)
                0x000000000001a622                __libc_cleanup_push_defer
                0x000000000001a638                __libc_cleanup_pop_restore
 .text          0x000000000001a650       0xce /usr/lib/gcc-cross/riscv64-linux-gnu/12/../../../../riscv64-linux-gnu/lib/libc.a(lowlevellock.o)
                0x000000000001a650                __lll_lock_wait_private
                0x000000000001a6a4                __lll_lock_wait
                0x000000000001a6fa                __lll_lock_wake_private
                0x000000000001a70c                __lll_lock_wake
 .text          0x000000000001a71e       0xd6 /usr/lib/gcc-cross/riscv64-linux-gnu/12/../../../../riscv64-linux-gnu/lib/libc.a(nptl_deallocate_tsd.o)
                0x000000000001a71e                __nptl_deallocate_tsd
 .text          0x000000000001a7f4        0x0 /usr/lib/gcc-cross/riscv64-linux-gnu/12/../../../../riscv64-linux-gnu/lib/libc.a(nptl_nthreads.o)
 .text          0x000000000001a7f4        0x0 /usr/lib/gcc-cross/riscv64-linux-gnu/12/../../../../riscv64-linux-gnu/lib/libc.a(pthread_keys.o)
 .text          0x000000000001a7f4      0x118 /usr/lib/gcc-cross/riscv64-linux-gnu/12/../../../../riscv64-linux-gnu/lib/libc.a(pthread_kill.o)
                0x000000000001a8fa                __pthread_kill_internal
                0x000000000001a8fc                pthread_kill
                0x000000000001a8fc                __pthread_kill
 .text          0x000000000001a90c       0x38 /usr/lib/gcc-cross/riscv64-linux-gnu/12/../../../../riscv64-linux-gnu/lib/libc.a(pthread_rwlock_init.o)
                0x000000000001a90c                pthread_rwlock_init
                0x000000000001a90c                __pthread_rwlock_init
                0x000000000001a90c                ___pthread_rwlock_init
 .text          0x000000000001a944      0x1fa /usr/lib/gcc-cross/riscv64-linux-gnu/12/../../../../riscv64-linux-gnu/lib/libc.a(pthread_rwlock_rdlock.o)
                0x000000000001a944                pthread_rwlock_rdlock
                0x000000000001a944                __pthread_rwlock_rdlock
                0x000000000001a944                ___pthread_rwlock_rdlock
 .text          0x000000000001ab3e      0x1a6 /usr/lib/gcc-cross/riscv64-linux-gnu/12/../../../../riscv64-linux-gnu/lib/libc.a(pthread_rwlock_unlock.o)
                0x000000000001ab3e                pthread_rwlock_unlock
                0x000000000001ab3e                __pthread_rwlock_unlock
                0x000000000001ab3e                ___pthread_rwlock_unlock
 .text          0x000000000001ace4      0x390 /usr/lib/gcc-cross/riscv64-linux-gnu/12/../../../../riscv64-linux-gnu/lib/libc.a(pthread_rwlock_wrlock.o)
                0x000000000001ace4                ___pthread_rwlock_wrlock
                0x000000000001ace4                __pthread_rwlock_wrlock
                0x000000000001ace4                pthread_rwlock_wrlock
 .text          0x000000000001b074        0x6 /usr/lib/gcc-cross/riscv64-linux-gnu/12/../../../../riscv64-linux-gnu/lib/libc.a(pthread_self.o)
                0x000000000001b074                pthread_self
                0x000000000001b074                __pthread_self
 .text          0x000000000001b07a       0x20 /usr/lib/gcc-cross/riscv64-linux-gnu/12/../../../../riscv64-linux-gnu/lib/libc.a(pthread_setcancelstate.o)
                0x000000000001b07a                __pthread_setcancelstate
                0x000000000001b07a                pthread_setcancelstate
 .text          0x000000000001b09a       0x98 /usr/lib/gcc-cross/riscv64-linux-gnu/12/../../../../riscv64-linux-gnu/lib/libc.a(pthread_sigmask.o)
                0x000000000001b09a                __pthread_sigmask
                0x000000000001b09a                pthread_sigmask
 .text          0x000000000001b132       0x38 /usr/lib/gcc-cross/riscv64-linux-gnu/12/../../../../riscv64-linux-gnu/lib/libc.a(pthread_testcancel.o)
                0x000000000001b132                ___pthread_testcancel
                0x000000000001b132                pthread_testcancel
                0x000000000001b132                __pthread_testcancel
 .text          0x000000000001b16a     0x4746 /usr/lib/gcc-cross/riscv64-linux-gnu/12/../../../../riscv64-linux-gnu/lib/libc.a(malloc.o)
                0x000000000001e2aa                __glibc_morecore
                0x000000000001e2d4                __malloc_fork_lock_parent
                0x000000000001e354                __malloc_fork_unlock_parent
                0x000000000001e3e8                __malloc_fork_unlock_child
                0x000000000001e458                malloc
                0x000000000001e458                __malloc
                0x000000000001e458                __libc_malloc
                0x000000000001e8b6                __free
                0x000000000001e8b6                __libc_free
                0x000000000001e8b6                free
                0x000000000001e974                __malloc_arena_thread_freeres
                0x000000000001ea74                __libc_realloc
                0x000000000001ea74                realloc
                0x000000000001ea74                __realloc
                0x000000000001ee16                __libc_memalign
                0x000000000001ee16                __memalign
                0x000000000001ee16                memalign
                0x000000000001ee16                aligned_alloc
                0x000000000001ee38                __libc_valloc
                0x000000000001ee38                valloc
                0x000000000001ee38                __valloc
                0x000000000001ee6c                pvalloc
                0x000000000001ee6c                __libc_pvalloc
                0x000000000001ee6c                __pvalloc
                0x000000000001eebe                __calloc
                0x000000000001eebe                calloc
                0x000000000001eebe                __libc_calloc
                0x000000000001f158                __malloc_trim
                0x000000000001f158                malloc_trim
                0x000000000001f37a                malloc_usable_size
                0x000000000001f37a                __malloc_usable_size
                0x000000000001f3a2                __mallinfo2
                0x000000000001f3a2                mallinfo2
                0x000000000001f3a2                __libc_mallinfo2
                0x000000000001f4aa                __mallinfo
                0x000000000001f4aa                __libc_mallinfo
                0x000000000001f4aa                mallinfo
                0x000000000001f512                malloc_stats
                0x000000000001f512                __malloc_stats
                0x000000000001f6d0                __libc_mallopt
                0x000000000001f6d0                mallopt
                0x000000000001f6d0                __mallopt
                0x000000000001f822                __posix_memalign
                0x000000000001f822                posix_memalign
                0x000000000001f878                __malloc_info
                0x000000000001f878                malloc_info
 .text          0x000000000001f8b0       0xd8 /usr/lib/gcc-cross/riscv64-linux-gnu/12/../../../../riscv64-linux-gnu/lib/libc.a(strchr.o)
                0x000000000001f8b0                index
                0x000000000001f8b0                strchr
 .text          0x000000000001f988       0x1e /usr/lib/gcc-cross/riscv64-linux-gnu/12/../../../../riscv64-linux-gnu/lib/libc.a(strcmp.o)
                0x000000000001f988                strcmp
 .text          0x000000000001f9a6       0x26 /usr/lib/gcc-cross/riscv64-linux-gnu/12/../../../../riscv64-linux-gnu/lib/libc.a(strcpy.o)
                0x000000000001f9a6                strcpy
 .text          0x000000000001f9cc      0x12e /usr/lib/gcc-cross/riscv64-linux-gnu/12/../../../../riscv64-linux-gnu/lib/libc.a(strcspn.o)
                0x000000000001f9cc                strcspn
 .text          0x000000000001fafa       0x34 /usr/lib/gcc-cross/riscv64-linux-gnu/12/../../../../riscv64-linux-gnu/lib/libc.a(strdup.o)
                0x000000000001fafa                __strdup
                0x000000000001fafa                strdup
 .text          0x000000000001fb2e       0xb2 /usr/lib/gcc-cross/riscv64-linux-gnu/12/../../../../riscv64-linux-gnu/lib/libc.a(strlen.o)
                0x000000000001fb2e                strlen
 .text          0x000000000001fbe0       0x92 /usr/lib/gcc-cross/riscv64-linux-gnu/12/../../../../riscv64-linux-gnu/lib/libc.a(strncmp.o)
                0x000000000001fbe0                strncmp
 .text          0x000000000001fc72      0x5ca /usr/lib/gcc-cross/riscv64-linux-gnu/12/../../../../riscv64-linux-gnu/lib/libc.a(strstr.o)
                0x000000000001fff4                strstr
 .text          0x000000000002023c      0x33e /usr/lib/gcc-cross/riscv64-linux-gnu/12/../../../../riscv64-linux-gnu/lib/libc.a(memcmp.o)
                0x000000000002023c                bcmp
                0x000000000002023c                __memcmpeq
                0x000000000002023c                memcmp
 .text          0x000000000002057a      0x124 /usr/lib/gcc-cross/riscv64-linux-gnu/12/../../../../riscv64-linux-gnu/lib/libc.a(memmove.o)
                0x000000000002057a                memmove
 .text          0x000000000002069e       0xaa /usr/lib/gcc-cross/riscv64-linux-gnu/12/../../../../riscv64-linux-gnu/lib/libc.a(memset.o)
                0x000000000002069e                memset
 .text          0x0000000000020748       0x30 /usr/lib/gcc-cross/riscv64-linux-gnu/12/../../../../riscv64-linux-gnu/lib/libc.a(stpcpy.o)
                0x0000000000020748                stpcpy
                0x0000000000020748                __stpcpy
 .text          0x0000000000020778       0x32 /usr/lib/gcc-cross/riscv64-linux-gnu/12/../../../../riscv64-linux-gnu/lib/libc.a(strcasecmp_l.o)
                0x0000000000020778                strcasecmp_l
                0x0000000000020778                __strcasecmp_l
 .text          0x00000000000207aa       0x94 /usr/lib/gcc-cross/riscv64-linux-gnu/12/../../../../riscv64-linux-gnu/lib/libc.a(memcpy.o)
                0x00000000000207aa                memcpy
 .text          0x000000000002083e      0x366 /usr/lib/gcc-cross/riscv64-linux-gnu/12/../../../../riscv64-linux-gnu/lib/libc.a(wordcopy.o)
                0x000000000002083e                _wordcopy_fwd_aligned
                0x0000000000020924                _wordcopy_fwd_dest_aligned
                0x0000000000020a1e                _wordcopy_bwd_aligned
                0x0000000000020ad8                _wordcopy_bwd_dest_aligned
 .text          0x0000000000020ba4       0x1e /usr/lib/gcc-cross/riscv64-linux-gnu/12/../../../../riscv64-linux-gnu/lib/libc.a(rawmemchr.o)
                0x0000000000020ba4                __rawmemchr
                0x0000000000020ba4                rawmemchr
 .text          0x0000000000020bc2       0xd6 /usr/lib/gcc-cross/riscv64-linux-gnu/12/../../../../riscv64-linux-gnu/lib/libc.a(strchrnul.o)
                0x0000000000020bc2                __strchrnul
                0x0000000000020bc2                strchrnul
 .text          0x0000000000020c98       0x1a /usr/lib/gcc-cross/riscv64-linux-gnu/12/../../../../riscv64-linux-gnu/lib/libc.a(wmempcpy.o)
                0x0000000000020c98                wmempcpy
                0x0000000000020c98                __wmempcpy
 .text          0x0000000000020cb2       0x26 /usr/lib/gcc-cross/riscv64-linux-gnu/12/../../../../riscv64-linux-gnu/lib/libc.a(mbsrtowcs.o)
                0x0000000000020cb2                mbsrtowcs
                0x0000000000020cb2                __mbsrtowcs
 .text          0x0000000000020cd8      0x40a /usr/lib/gcc-cross/riscv64-linux-gnu/12/../../../../riscv64-linux-gnu/lib/libc.a(wcsmbsload.o)
                0x0000000000020cd8                _nl_cleanup_ctype
                0x0000000000020d10                __wcsmbs_getfct
                0x0000000000020d64                __wcsmbs_load_conv
                0x0000000000020f48                __wcsmbs_clone_conv
                0x0000000000021026                __wcsmbs_named_conv
 .text          0x00000000000210e2      0x26e /usr/lib/gcc-cross/riscv64-linux-gnu/12/../../../../riscv64-linux-gnu/lib/libc.a(mbsrtowcs_l.o)
                0x00000000000210e2                __mbsrtowcs_l
 .text          0x0000000000021350       0x70 /usr/lib/gcc-cross/riscv64-linux-gnu/12/../../../../riscv64-linux-gnu/lib/libc.a(clock_gettime.o)
                0x0000000000021350                clock_gettime
                0x0000000000021350                __clock_gettime
 .text          0x00000000000213c0       0x44 /usr/lib/gcc-cross/riscv64-linux-gnu/12/../../../../riscv64-linux-gnu/lib/libc.a(_exit.o)
                0x00000000000213c0                _Exit
                0x00000000000213c0                _exit
 *fill*         0x0000000000021404        0x0 
 .text          0x0000000000021404        0xc /usr/lib/gcc-cross/riscv64-linux-gnu/12/../../../../riscv64-linux-gnu/lib/libc.a(getpid.o)
                0x0000000000021404                __getpid
                0x0000000000021404                getpid
 .text          0x0000000000021410      0x538 /usr/lib/gcc-cross/riscv64-linux-gnu/12/../../../../riscv64-linux-gnu/lib/libc.a(sysconf.o)
                0x0000000000021410                sysconf
                0x0000000000021410                __sysconf
 *fill*         0x0000000000021948        0x0 
 .text          0x0000000000021948       0x18 /usr/lib/gcc-cross/riscv64-linux-gnu/12/../../../../riscv64-linux-gnu/lib/libc.a(sched_yield.o)
                0x0000000000021948                __sched_yield
                0x0000000000021948                sched_yield
 .text          0x0000000000021960       0x40 /usr/lib/gcc-cross/riscv64-linux-gnu/12/../../../../riscv64-linux-gnu/lib/libc.a(get_child_max.o)
                0x0000000000021960                __get_child_max
 .text          0x00000000000219a0        0x0 /usr/lib/gcc-cross/riscv64-linux-gnu/12/../../../../riscv64-linux-gnu/lib/libc.a(environ.o)
 .text          0x00000000000219a0       0x24 /usr/lib/gcc-cross/riscv64-linux-gnu/12/../../../../riscv64-linux-gnu/lib/libc.a(fstat64.o)
                0x00000000000219a0                fstat64
                0x00000000000219a0                fstat
                0x00000000000219a0                __fstat64
                0x00000000000219a0                __fstat
 .text          0x00000000000219c4       0x2a /usr/lib/gcc-cross/riscv64-linux-gnu/12/../../../../riscv64-linux-gnu/lib/libc.a(fstatat64.o)
                0x00000000000219c4                fstatat
                0x00000000000219c4                __fstatat
                0x00000000000219c4                fstatat64
                0x00000000000219c4                __fstatat64
                0x00000000000219c4                __GI___fstatat
 .text          0x00000000000219ee       0xd6 /usr/lib/gcc-cross/riscv64-linux-gnu/12/../../../../riscv64-linux-gnu/lib/libc.a(open64.o)
                0x00000000000219ee                __open
                0x00000000000219ee                __libc_open64
                0x00000000000219ee                __libc_open
                0x00000000000219ee                open64
                0x00000000000219ee                open
                0x00000000000219ee                __open64
 .text          0x0000000000021ac4       0x8c /usr/lib/gcc-cross/riscv64-linux-gnu/12/../../../../riscv64-linux-gnu/lib/libc.a(read.o)
                0x0000000000021ac4                __read
                0x0000000000021ac4                __libc_read
                0x0000000000021ac4                read
 .text          0x0000000000021b50       0x8c /usr/lib/gcc-cross/riscv64-linux-gnu/12/../../../../riscv64-linux-gnu/lib/libc.a(write.o)
                0x0000000000021b50                __write
                0x0000000000021b50                write
                0x0000000000021b50                __libc_write
 .text          0x0000000000021bdc       0x24 /usr/lib/gcc-cross/riscv64-linux-gnu/12/../../../../riscv64-linux-gnu/lib/libc.a(lseek64.o)
                0x0000000000021bdc                __lseek64
                0x0000000000021bdc                lseek
                0x0000000000021bdc                __libc_lseek64
                0x0000000000021bdc                __lseek
                0x0000000000021bdc                __libc_lseek
                0x0000000000021bdc                lseek64
 .text          0x0000000000021c00      0x468 /usr/lib/gcc-cross/riscv64-linux-gnu/12/../../../../riscv64-linux-gnu/lib/libc.a(getcwd.o)
                0x0000000000021c00                __getcwd
                0x0000000000021c00                getcwd
 .text          0x0000000000022068       0x26 /usr/lib/gcc-cross/riscv64-linux-gnu/12/../../../../riscv64-linux-gnu/lib/libc.a(close_nocancel.o)
                0x0000000000022068                __close_nocancel
 .text          0x000000000002208e      0x11c /usr/lib/gcc-cross/riscv64-linux-gnu/12/../../../../riscv64-linux-gnu/lib/libc.a(fcntl_nocancel.o)
                0x000000000002208e                __fcntl64_nocancel
                0x0000000000022126                __fcntl64_nocancel_adjusted
 .text          0x00000000000221aa       0x96 /usr/lib/gcc-cross/riscv64-linux-gnu/12/../../../../riscv64-linux-gnu/lib/libc.a(open64_nocancel.o)
                0x00000000000221aa                __open_nocancel
                0x00000000000221aa                __open64_nocancel
 .text          0x0000000000022240       0x24 /usr/lib/gcc-cross/riscv64-linux-gnu/12/../../../../riscv64-linux-gnu/lib/libc.a(read_nocancel.o)
                0x0000000000022240                __read_nocancel
 .text          0x0000000000022264       0x24 /usr/lib/gcc-cross/riscv64-linux-gnu/12/../../../../riscv64-linux-gnu/lib/libc.a(write_nocancel.o)
                0x0000000000022264                __write_nocancel
 .text          0x0000000000022288       0x34 /usr/lib/gcc-cross/riscv64-linux-gnu/12/../../../../riscv64-linux-gnu/lib/libc.a(getrlimit64.o)
                0x0000000000022288                getrlimit
                0x0000000000022288                getrlimit64
                0x0000000000022288                __getrlimit
                0x0000000000022288                __GI___getrlimit
                0x0000000000022288                __GI_getrlimit
                0x0000000000022288                __getrlimit64
 .text          0x00000000000222bc       0x2c /usr/lib/gcc-cross/riscv64-linux-gnu/12/../../../../riscv64-linux-gnu/lib/libc.a(brk.o)
                0x00000000000222bc                __brk
                0x00000000000222bc                brk
 .text          0x00000000000222e8       0x7a /usr/lib/gcc-cross/riscv64-linux-gnu/12/../../../../riscv64-linux-gnu/lib/libc.a(sbrk.o)
                0x00000000000222e8                sbrk
                0x00000000000222e8                __sbrk
 .text          0x0000000000022362       0x32 /usr/lib/gcc-cross/riscv64-linux-gnu/12/../../../../riscv64-linux-gnu/lib/libc.a(getpagesize.o)
                0x0000000000022362                getpagesize
                0x0000000000022362                __getpagesize
 .text          0x0000000000022394       0x3e /usr/lib/gcc-cross/riscv64-linux-gnu/12/../../../../riscv64-linux-gnu/lib/libc.a(getdtsz.o)
                0x0000000000022394                __getdtablesize
                0x0000000000022394                getdtablesize
 .text          0x00000000000223d2       0x3e /usr/lib/gcc-cross/riscv64-linux-gnu/12/../../../../riscv64-linux-gnu/lib/libc.a(mmap64.o)
                0x00000000000223d2                __mmap
                0x00000000000223d2                mmap
                0x00000000000223d2                __mmap64
                0x00000000000223d2                mmap64
 *fill*         0x0000000000022410        0x0 
 .text          0x0000000000022410       0x18 /usr/lib/gcc-cross/riscv64-linux-gnu/12/../../../../riscv64-linux-gnu/lib/libc.a(munmap.o)
                0x0000000000022410                munmap
                0x0000000000022410                __munmap
 .text          0x0000000000022428       0x18 /usr/lib/gcc-cross/riscv64-linux-gnu/12/../../../../riscv64-linux-gnu/lib/libc.a(mprotect.o)
                0x0000000000022428                __mprotect
                0x0000000000022428                mprotect
 .text          0x0000000000022440       0x18 /usr/lib/gcc-cross/riscv64-linux-gnu/12/../../../../riscv64-linux-gnu/lib/libc.a(madvise.o)
                0x0000000000022440                madvise
                0x0000000000022440                __madvise
 .text          0x0000000000022458      0x76c /usr/lib/gcc-cross/riscv64-linux-gnu/12/../../../../riscv64-linux-gnu/lib/libc.a(tsearch.o)
                0x000000000002268c                tsearch
                0x000000000002268c                __tsearch
                0x0000000000022792                tfind
                0x0000000000022792                __tfind
                0x00000000000227ea                tdelete
                0x00000000000227ea                __tdelete
                0x0000000000022bac                __twalk
                0x0000000000022bac                twalk
                0x0000000000022bb6                twalk_r
                0x0000000000022bb6                __twalk_r
                0x0000000000022bbe                __tdestroy
                0x0000000000022bbe                tdestroy
 .text          0x0000000000022bc4      0x5b8 /usr/lib/gcc-cross/riscv64-linux-gnu/12/../../../../riscv64-linux-gnu/lib/libc.a(getsysstats.o)
                0x0000000000022f20                __get_nprocs_sched
                0x0000000000022f90                __get_nprocs
                0x0000000000022f90                get_nprocs
                0x0000000000022fb4                __get_nprocs_conf
                0x0000000000022fb4                get_nprocs_conf
                0x0000000000023088                get_phys_pages
                0x0000000000023088                __get_phys_pages
                0x0000000000023102                get_avphys_pages
                0x0000000000023102                __get_avphys_pages
 .text          0x000000000002317c       0x14 /usr/lib/gcc-cross/riscv64-linux-gnu/12/../../../../riscv64-linux-gnu/lib/libc.a(getclktck.o)
                0x000000000002317c                __getclktck
 .text          0x0000000000023190       0xa2 /usr/lib/gcc-cross/riscv64-linux-gnu/12/../../../../riscv64-linux-gnu/lib/libc.a(getauxval.o)
                0x0000000000023190                __getauxval2
                0x00000000000231e0                getauxval
                0x00000000000231e0                __getauxval
 .text          0x0000000000023232       0x3a /usr/lib/gcc-cross/riscv64-linux-gnu/12/../../../../riscv64-linux-gnu/lib/libc.a(init-misc.o)
                0x0000000000023232                __init_misc
 .text          0x000000000002326c       0x74 /usr/lib/gcc-cross/riscv64-linux-gnu/12/../../../../riscv64-linux-gnu/lib/libc.a(mremap.o)
                0x000000000002326c                mremap
                0x000000000002326c                __mremap
 *fill*         0x00000000000232e0        0x0 
 .text          0x00000000000232e0       0x18 /usr/lib/gcc-cross/riscv64-linux-gnu/12/../../../../riscv64-linux-gnu/lib/libc.a(sysinfo.o)
                0x00000000000232e0                sysinfo
                0x00000000000232e0                __sysinfo
 .text          0x00000000000232f8      0x398 /usr/lib/gcc-cross/riscv64-linux-gnu/12/../../../../riscv64-linux-gnu/lib/libc.a(malloc-hugepages.o)
                0x00000000000232f8                __malloc_default_thp_pagesize
                0x000000000002338c                __malloc_thp_mode
                0x000000000002342c                __malloc_hugepage_config
 .text          0x0000000000023690       0x10 /usr/lib/gcc-cross/riscv64-linux-gnu/12/../../../../riscv64-linux-gnu/lib/libc.a(stack_chk_fail.o)
                0x0000000000023690                __stack_chk_fail_local
                0x0000000000023690                __stack_chk_fail
 .text          0x00000000000236a0       0x1e /usr/lib/gcc-cross/riscv64-linux-gnu/12/../../../../riscv64-linux-gnu/lib/libc.a(fortify_fail.o)
                0x00000000000236a0                __fortify_fail
 .text          0x00000000000236be       0xbc /usr/lib/gcc-cross/riscv64-linux-gnu/12/../../../../riscv64-linux-gnu/lib/libc.a(dl-debug.o)
                0x00000000000236be                _dl_debug_state
                0x00000000000236c0                _dl_debug_update
                0x000000000002370c                _dl_debug_initialize
 .text          0x000000000002377a        0x0 /usr/lib/gcc-cross/riscv64-linux-gnu/12/../../../../riscv64-linux-gnu/lib/libc.a(dl-debug-symbols.o)
 .text          0x000000000002377a      0x790 /usr/lib/gcc-cross/riscv64-linux-gnu/12/../../../../riscv64-linux-gnu/lib/libc.a(dl-tls.o)
                0x000000000002377a                _dl_tls_static_surplus_init
                0x00000000000237f6                _dl_assign_tls_modid
                0x00000000000238d8                _dl_count_modids
                0x0000000000023922                _dl_get_tls_static_info
                0x000000000002393c                _dl_allocate_tls_storage
                0x00000000000239e2                _dl_allocate_tls_init
                0x0000000000023c20                _dl_allocate_tls
                0x0000000000023c76                _dl_deallocate_tls
                0x0000000000023cea                _dl_tls_get_addr_soft
                0x0000000000023d46                _dl_add_to_slotinfo
                0x0000000000023e26                _dl_init_static_tls
 .text          0x0000000000023f0a       0xd2 /usr/lib/gcc-cross/riscv64-linux-gnu/12/../../../../riscv64-linux-gnu/lib/libc.a(dl-tls_init_tp.o)
                0x0000000000023f0a                __tls_pre_init_tp
                0x0000000000023f30                __tls_init_tp
 .text          0x0000000000023fdc      0x5e0 /usr/lib/gcc-cross/riscv64-linux-gnu/12/../../../../riscv64-linux-gnu/lib/libc.a(dl-tunables.o)
                0x0000000000024076                __tunable_set_val
                0x000000000002408e                __tunables_init
                0x0000000000024496                __tunables_print
                0x0000000000024574                __tunable_get_val
 .text          0x00000000000245bc      0x232 /usr/lib/gcc-cross/riscv64-linux-gnu/12/../../../../riscv64-linux-gnu/lib/libc.a(dl-error.o)
                0x0000000000024660                _dl_signal_exception
                0x00000000000246a2                _dl_signal_error
                0x00000000000246e2                _dl_catch_exception
                0x000000000002478e                _dl_catch_error
 .text          0x00000000000247ee       0x32 /usr/lib/gcc-cross/riscv64-linux-gnu/12/../../../../riscv64-linux-gnu/lib/libc.a(dl-profstub.o)
                0x00000000000247ee                _dl_mcount_wrapper
                0x00000000000247fe                _dl_mcount_wrapper_check
 .text          0x0000000000024820      0x976 /usr/lib/gcc-cross/riscv64-linux-gnu/12/../../../../riscv64-linux-gnu/lib/libc.a(dl-support.o)
                0x000000000002483c                _dl_aux_init
                0x0000000000024a80                _dl_non_dynamic_init
                0x0000000000025194                _dl_audit_pltexit
 .text          0x0000000000025196       0xfa /usr/lib/gcc-cross/riscv64-linux-gnu/12/../../../../riscv64-linux-gnu/lib/libc.a(dl-sysdep.o)
                0x0000000000025196                _dl_discover_osversion
 .text          0x0000000000025290       0x4e /usr/lib/gcc-cross/riscv64-linux-gnu/12/../../../../riscv64-linux-gnu/lib/libc.a(enbl-secure.o)
                0x0000000000025290                __libc_init_secure
 .text          0x00000000000252de       0xb8 /usr/lib/gcc-cross/riscv64-linux-gnu/12/../../../../riscv64-linux-gnu/lib/libc.a(libc_early_init.o)
                0x00000000000252de                __libc_early_init
 .text          0x0000000000025396       0x3e /usr/lib/gcc-cross/riscv64-linux-gnu/12/../../../../riscv64-linux-gnu/lib/libc.a(init-first.o)
                0x0000000000025396                __libc_init_first
 *fill*         0x00000000000253d4        0x0 
 .text          0x00000000000253d4       0x16 /usr/lib/gcc-cross/riscv64-linux-gnu/12/../../../../riscv64-linux-gnu/lib/libc.a(sysdep.o)
                0x00000000000253d4                __syscall_error
                0x00000000000253d8                __syscall_set_errno
 .text          0x00000000000253ea      0x290 /usr/lib/gcc-cross/riscv64-linux-gnu/12/../../../../riscv64-linux-gnu/lib/libc.a(gconv_open.o)
                0x00000000000253ea                __gconv_open
 .text          0x000000000002567a      0x158 /usr/lib/gcc-cross/riscv64-linux-gnu/12/../../../../riscv64-linux-gnu/lib/libc.a(gconv.o)
                0x000000000002567a                __gconv
 .text          0x00000000000257d2       0x4e /usr/lib/gcc-cross/riscv64-linux-gnu/12/../../../../riscv64-linux-gnu/lib/libc.a(gconv_close.o)
                0x00000000000257d2                __gconv_close
 .text          0x0000000000025820      0xb22 /usr/lib/gcc-cross/riscv64-linux-gnu/12/../../../../riscv64-linux-gnu/lib/libc.a(gconv_db.o)
                0x0000000000025820                __gconv_alias_compare
                0x0000000000025858                __gconv_get_modules_db
                0x0000000000025862                __gconv_get_alias_db
                0x000000000002586c                __gconv_release_step
                0x0000000000025fec                __gconv_compare_alias
                0x0000000000026098                __gconv_find_transform
                0x0000000000026252                __gconv_close_transform
 .text          0x0000000000026342      0xbba /usr/lib/gcc-cross/riscv64-linux-gnu/12/../../../../riscv64-linux-gnu/lib/libc.a(gconv_conf.o)
                0x0000000000026ee8                __gconv_load_conf
 .text          0x0000000000026efc       0xb8 /usr/lib/gcc-cross/riscv64-linux-gnu/12/../../../../riscv64-linux-gnu/lib/libc.a(gconv_builtin.o)
                0x0000000000026efc                __gconv_get_builtin_trans
 .text          0x0000000000026fb4     0x5496 /usr/lib/gcc-cross/riscv64-linux-gnu/12/../../../../riscv64-linux-gnu/lib/libc.a(gconv_simple.o)
                0x0000000000026fb4                __gconv_btwoc_ascii
                0x0000000000026fc8                __gconv_transform_internal_ucs4
                0x00000000000274ac                __gconv_transform_ucs4_internal
                0x0000000000027ae0                __gconv_transform_internal_ucs4le
                0x0000000000027f58                __gconv_transform_ucs4le_internal
                0x0000000000028576                __gconv_transform_ascii_internal
                0x00000000000288c8                __gconv_transform_internal_ascii
                0x0000000000029030                __gconv_transform_internal_utf8
                0x00000000000298c8                __gconv_transform_utf8_internal
                0x000000000002a1f6                __gconv_transform_ucs2_internal
                0x000000000002a868                __gconv_transform_internal_ucs2
                0x000000000002b2e8                __gconv_transform_ucs2reverse_internal
                0x000000000002b984                __gconv_transform_internal_ucs2reverse
 .text          0x000000000002c44a      0x2ee /usr/lib/gcc-cross/riscv64-linux-gnu/12/../../../../riscv64-linux-gnu/lib/libc.a(gconv_trans.o)
                0x000000000002c44a                __gconv_transliterate
 .text          0x000000000002c738      0x66e /usr/lib/gcc-cross/riscv64-linux-gnu/12/../../../../riscv64-linux-gnu/lib/libc.a(gconv_cache.o)
                0x000000000002c8a6                __gconv_get_cache
                0x000000000002c8b0                __gconv_load_cache
                0x000000000002ca0e                __gconv_compare_alias_cache
                0x000000000002ca84                __gconv_lookup_cache
                0x000000000002cd96                __gconv_release_cache
 .text          0x000000000002cda6      0x1cc /usr/lib/gcc-cross/riscv64-linux-gnu/12/../../../../riscv64-linux-gnu/lib/libc.a(gconv_dl.o)
                0x000000000002ce20                __gconv_find_shlib
                0x000000000002cf5c                __gconv_release_shlib
 .text          0x000000000002cf72      0x364 /usr/lib/gcc-cross/riscv64-linux-gnu/12/../../../../riscv64-linux-gnu/lib/libc.a(gconv_charset.o)
                0x000000000002d09c                __gconv_create_spec
                0x000000000002d2bc                __gconv_destroy_spec
 .text          0x000000000002d2d6      0x634 /usr/lib/gcc-cross/riscv64-linux-gnu/12/../../../../riscv64-linux-gnu/lib/libc.a(setlocale.o)
                0x000000000002d480                setlocale
 .text          0x000000000002d90a      0x634 /usr/lib/gcc-cross/riscv64-linux-gnu/12/../../../../riscv64-linux-gnu/lib/libc.a(findlocale.o)
                0x000000000002d90a                _nl_find_locale
                0x000000000002df02                _nl_remove_locale
 .text          0x000000000002df3e      0x43e /usr/lib/gcc-cross/riscv64-linux-gnu/12/../../../../riscv64-linux-gnu/lib/libc.a(loadlocale.o)
                0x000000000002df3e                _nl_intern_locale_data
                0x000000000002e124                _nl_load_locale
                0x000000000002e338                _nl_unload_locale
 .text          0x000000000002e37c      0x3d0 /usr/lib/gcc-cross/riscv64-linux-gnu/12/../../../../riscv64-linux-gnu/lib/libc.a(loadarchive.o)
                0x000000000002e37c                _nl_load_locale_from_archive
 .text          0x000000000002e74c       0x5a /usr/lib/gcc-cross/riscv64-linux-gnu/12/../../../../riscv64-linux-gnu/lib/libc.a(lc-ctype.o)
                0x000000000002e74c                _nl_postload_ctype
 .text          0x000000000002e7a6        0x0 /usr/lib/gcc-cross/riscv64-linux-gnu/12/../../../../riscv64-linux-gnu/lib/libc.a(C-ctype.o)
 .text          0x000000000002e7a6        0x0 /usr/lib/gcc-cross/riscv64-linux-gnu/12/../../../../riscv64-linux-gnu/lib/libc.a(SYS_libc.o)
 .text          0x000000000002e7a6        0x0 /usr/lib/gcc-cross/riscv64-linux-gnu/12/../../../../riscv64-linux-gnu/lib/libc.a(C_name.o)
 .text          0x000000000002e7a6        0x0 /usr/lib/gcc-cross/riscv64-linux-gnu/12/../../../../riscv64-linux-gnu/lib/libc.a(xlocale.o)
 .text          0x000000000002e7a6       0x16 /usr/lib/gcc-cross/riscv64-linux-gnu/12/../../../../riscv64-linux-gnu/lib/libc.a(localename.o)
                0x000000000002e7a6                __current_locale_name
 .text          0x000000000002e7bc        0x0 /usr/lib/gcc-cross/riscv64-linux-gnu/12/../../../../riscv64-linux-gnu/lib/libc.a(global-locale.o)
 .text          0x000000000002e7bc       0x5a /usr/lib/gcc-cross/riscv64-linux-gnu/12/../../../../riscv64-linux-gnu/lib/libc.a(ctype-info.o)
                0x000000000002e7bc                __ctype_b_loc
                0x000000000002e7c8                __ctype_toupper_loc
                0x000000000002e7d6                __ctype_tolower_loc
                0x000000000002e7e4                __ctype_init
 *fill*         0x000000000002e816        0x2 
 .text          0x000000000002e818       0x6a /usr/lib/gcc-cross/riscv64-linux-gnu/12/../../../../riscv64-linux-gnu/lib/libc.a(__longjmp.o)
                0x000000000002e818                __longjmp
 .text          0x000000000002e882       0x2a /usr/lib/gcc-cross/riscv64-linux-gnu/12/../../../../riscv64-linux-gnu/lib/libc.a(sigaction.o)
                0x000000000002e882                sigaction
                0x000000000002e882                __sigaction
 .text          0x000000000002e8ac       0xb0 /usr/lib/gcc-cross/riscv64-linux-gnu/12/../../../../riscv64-linux-gnu/lib/libc.a(libc_sigaction.o)
                0x000000000002e8ac                __libc_sigaction
 .text          0x000000000002e95c      0x310 /usr/lib/gcc-cross/riscv64-linux-gnu/12/../../../../riscv64-linux-gnu/lib/libc.a(qsort.o)
                0x000000000002e95c                _quicksort
 .text          0x000000000002ec6c      0x466 /usr/lib/gcc-cross/riscv64-linux-gnu/12/../../../../riscv64-linux-gnu/lib/libc.a(setenv.o)
                0x000000000002ec6c                __add_to_environ
                0x000000000002ef02                setenv
                0x000000000002ef02                __setenv
                0x000000000002ef66                unsetenv
                0x000000000002ef66                __unsetenv
                0x000000000002f03a                clearenv
                0x000000000002f03a                __clearenv
 .text          0x000000000002f0d2       0x8a /usr/lib/gcc-cross/riscv64-linux-gnu/12/../../../../riscv64-linux-gnu/lib/libc.a(getrandom.o)
                0x000000000002f0d2                __getrandom
                0x000000000002f0d2                getrandom
 .text          0x000000000002f15c       0x1e /usr/lib/gcc-cross/riscv64-linux-gnu/12/../../../../riscv64-linux-gnu/lib/libc.a(strtol.o)
                0x000000000002f15c                __strtol_internal
                0x000000000002f15c                __strtoll_internal
                0x000000000002f16a                strtoimax
                0x000000000002f16a                strtoll
                0x000000000002f16a                strtoq
                0x000000000002f16a                strtol
                0x000000000002f16a                __strtol
 .text          0x000000000002f17a      0x362 /usr/lib/gcc-cross/riscv64-linux-gnu/12/../../../../riscv64-linux-gnu/lib/libc.a(strtol_l.o)
                0x000000000002f17a                ____strtol_l_internal
                0x000000000002f17a                ____strtoll_l_internal
                0x000000000002f4d6                strtoll_l
                0x000000000002f4d6                strtol_l
                0x000000000002f4d6                __strtoll_l
                0x000000000002f4d6                __strtol_l
 .text          0x000000000002f4dc       0x44 /usr/lib/gcc-cross/riscv64-linux-gnu/12/../../../../riscv64-linux-gnu/lib/libc.a(fprintf.o)
                0x000000000002f4dc                fprintf
                0x000000000002f4dc                _IO_fprintf
                0x000000000002f4dc                __fprintf
 .text          0x000000000002f520     0x3dc2 /usr/lib/gcc-cross/riscv64-linux-gnu/12/../../../../riscv64-linux-gnu/lib/libc.a(vfprintf-internal.o)
                0x0000000000031c3a                __vfprintf_internal
 .text          0x00000000000332e2     0x3ec8 /usr/lib/gcc-cross/riscv64-linux-gnu/12/../../../../riscv64-linux-gnu/lib/libc.a(vfwprintf-internal.o)
                0x0000000000035a28                __vfwprintf_internal
 .text          0x00000000000371aa       0x4c /usr/lib/gcc-cross/riscv64-linux-gnu/12/../../../../riscv64-linux-gnu/lib/libc.a(errlist.o)
                0x00000000000371aa                __get_errlist
                0x00000000000371c6                __get_errname
 .text          0x00000000000371f6      0x50a /usr/lib/gcc-cross/riscv64-linux-gnu/12/../../../../riscv64-linux-gnu/lib/libc.a(printf-parsemb.o)
                0x0000000000037266                __parse_one_specmb
 .text          0x0000000000037700      0x528 /usr/lib/gcc-cross/riscv64-linux-gnu/12/../../../../riscv64-linux-gnu/lib/libc.a(printf-parsewc.o)
                0x0000000000037778                __parse_one_specwc
 .text          0x0000000000037c28      0x104 /usr/lib/gcc-cross/riscv64-linux-gnu/12/../../../../riscv64-linux-gnu/lib/libc.a(filedoalloc.o)
                0x0000000000037c28                _IO_file_doallocate
 .text          0x0000000000037d2c      0x110 /usr/lib/gcc-cross/riscv64-linux-gnu/12/../../../../riscv64-linux-gnu/lib/libc.a(iofputs.o)
                0x0000000000037d2c                _IO_fputs
                0x0000000000037d2c                fputs
 .text          0x0000000000037e3c       0x56 /usr/lib/gcc-cross/riscv64-linux-gnu/12/../../../../riscv64-linux-gnu/lib/libc.a(wfiledoalloc.o)
                0x0000000000037e3c                _IO_wfile_doallocate
 .text          0x0000000000037e92      0x168 /usr/lib/gcc-cross/riscv64-linux-gnu/12/../../../../riscv64-linux-gnu/lib/libc.a(iofwrite.o)
                0x0000000000037e92                _IO_fwrite
                0x0000000000037e92                fwrite
 .text          0x0000000000037ffa      0x21e /usr/lib/gcc-cross/riscv64-linux-gnu/12/../../../../riscv64-linux-gnu/lib/libc.a(iogetdelim.o)
                0x0000000000037ffa                __getdelim
                0x0000000000037ffa                getdelim
 .text          0x0000000000038218      0x114 /usr/lib/gcc-cross/riscv64-linux-gnu/12/../../../../riscv64-linux-gnu/lib/libc.a(iogetline.o)
                0x0000000000038218                _IO_getline_info
                0x0000000000038328                _IO_getline
 .text          0x000000000003832c      0x106 /usr/lib/gcc-cross/riscv64-linux-gnu/12/../../../../riscv64-linux-gnu/lib/libc.a(iopadn.o)
                0x000000000003832c                _IO_padn
 .text          0x0000000000038432      0x10a /usr/lib/gcc-cross/riscv64-linux-gnu/12/../../../../riscv64-linux-gnu/lib/libc.a(iowpadn.o)
                0x0000000000038432                _IO_wpadn
 .text          0x000000000003853c      0xb60 /usr/lib/gcc-cross/riscv64-linux-gnu/12/../../../../riscv64-linux-gnu/lib/libc.a(wgenops.o)
                0x00000000000386b0                _IO_least_wmarker
                0x00000000000386cc                _IO_switch_to_main_wget_area
                0x00000000000386ee                _IO_switch_to_wbackup_area
                0x0000000000038710                _IO_wsetb
                0x000000000003875e                _IO_wdefault_pbackfail
                0x0000000000038868                _IO_wdefault_finish
                0x00000000000388b2                _IO_wdefault_uflow
                0x000000000003890c                __woverflow
                0x000000000003897c                _IO_wdefault_xsputn
                0x0000000000038a8e                _IO_wdoallocbuf
                0x0000000000038af8                _IO_wdefault_doallocate
                0x0000000000038b50                _IO_switch_to_wget_mode
                0x0000000000038ba8                _IO_free_wbackup_area
                0x0000000000038bf0                __wuflow
                0x0000000000038cd8                __wunderflow
                0x0000000000038db2                _IO_wdefault_xsgetn
                0x0000000000038e58                _IO_sputbackwc
                0x0000000000038ec2                _IO_sungetwc
                0x0000000000038f24                _IO_adjust_wcolumn
                0x0000000000038f4e                _IO_init_wmarker
                0x0000000000038f9e                _IO_wmarker_delta
                0x0000000000038fce                _IO_seekwmark
                0x0000000000039048                _IO_unsave_wmarkers
 .text          0x000000000003909c       0x4e /usr/lib/gcc-cross/riscv64-linux-gnu/12/../../../../riscv64-linux-gnu/lib/libc.a(cancellation.o)
                0x000000000003909c                __pthread_enable_asynccancel
                0x00000000000390de                __pthread_disable_asynccancel
 .text          0x00000000000390ea      0x158 /usr/lib/gcc-cross/riscv64-linux-gnu/12/../../../../riscv64-linux-gnu/lib/libc.a(futex-internal.o)
                0x00000000000391d4                __futex_abstimed_wait64
                0x00000000000391d8                __futex_abstimed_wait_cancelable64
                0x00000000000391dc                __futex_lock_pi64
 .text          0x0000000000039242       0x68 /usr/lib/gcc-cross/riscv64-linux-gnu/12/../../../../riscv64-linux-gnu/lib/libc.a(pthread_mutex_conf.o)
                0x000000000003925a                __pthread_tunables_init
 .text          0x00000000000392aa      0x780 /usr/lib/gcc-cross/riscv64-linux-gnu/12/../../../../riscv64-linux-gnu/lib/libc.a(pthread_mutex_lock.o)
                0x0000000000039824                __pthread_mutex_lock
                0x0000000000039824                ___pthread_mutex_lock
                0x0000000000039824                pthread_mutex_lock
 .text          0x0000000000039a2a      0x440 /usr/lib/gcc-cross/riscv64-linux-gnu/12/../../../../riscv64-linux-gnu/lib/libc.a(pthread_mutex_unlock.o)
                0x0000000000039d62                __pthread_mutex_unlock_usercnt
                0x0000000000039e66                __pthread_mutex_unlock
                0x0000000000039e66                pthread_mutex_unlock
                0x0000000000039e66                ___pthread_mutex_unlock
 .text          0x0000000000039e6a      0x1ae /usr/lib/gcc-cross/riscv64-linux-gnu/12/../../../../riscv64-linux-gnu/lib/libc.a(pthread_once.o)
                0x000000000003a008                __pthread_once
                0x000000000003a008                pthread_once
                0x000000000003a008                ___pthread_once
 .text          0x000000000003a018      0x406 /usr/lib/gcc-cross/riscv64-linux-gnu/12/../../../../riscv64-linux-gnu/lib/libc.a(tpp.o)
                0x000000000003a018                __init_sched_fifo_prio
                0x000000000003a046                __pthread_tpp_change_priority
                0x000000000003a32e                __pthread_current_priority
 .text          0x000000000003a41e        0x0 /usr/lib/gcc-cross/riscv64-linux-gnu/12/../../../../riscv64-linux-gnu/lib/libc.a(vars.o)
 .text          0x000000000003a41e       0x90 /usr/lib/gcc-cross/riscv64-linux-gnu/12/../../../../riscv64-linux-gnu/lib/libc.a(scratch_buffer_grow_preserve.o)
                0x000000000003a41e                __libc_scratch_buffer_grow_preserve
 .text          0x000000000003a4ae       0x94 /usr/lib/gcc-cross/riscv64-linux-gnu/12/../../../../riscv64-linux-gnu/lib/libc.a(scratch_buffer_set_array_size.o)
                0x000000000003a4ae                __libc_scratch_buffer_set_array_size
 .text          0x000000000003a542       0x3a /usr/lib/gcc-cross/riscv64-linux-gnu/12/../../../../riscv64-linux-gnu/lib/libc.a(strndup.o)
                0x000000000003a542                strndup
                0x000000000003a542                __strndup
 .text          0x000000000003a57c       0x68 /usr/lib/gcc-cross/riscv64-linux-gnu/12/../../../../riscv64-linux-gnu/lib/libc.a(_strerror.o)
                0x000000000003a57c                __strerror_r
                0x000000000003a57c                strerror_r
 .text          0x000000000003a5e4       0xd0 /usr/lib/gcc-cross/riscv64-linux-gnu/12/../../../../riscv64-linux-gnu/lib/libc.a(strnlen.o)
                0x000000000003a5e4                __strnlen
                0x000000000003a5e4                strnlen
 .text          0x000000000003a6b4       0x4a /usr/lib/gcc-cross/riscv64-linux-gnu/12/../../../../riscv64-linux-gnu/lib/libc.a(strrchr.o)
                0x000000000003a6b4                strrchr
                0x000000000003a6b4                rindex
 .text          0x000000000003a6fe       0x62 /usr/lib/gcc-cross/riscv64-linux-gnu/12/../../../../riscv64-linux-gnu/lib/libc.a(strtok_r.o)
                0x000000000003a6fe                strtok_r
                0x000000000003a6fe                __strtok_r
 .text          0x000000000003a760       0x88 /usr/lib/gcc-cross/riscv64-linux-gnu/12/../../../../riscv64-linux-gnu/lib/libc.a(memchr.o)
                0x000000000003a760                memchr
                0x000000000003a760                __memchr
 .text          0x000000000003a7e8      0x516 /usr/lib/gcc-cross/riscv64-linux-gnu/12/../../../../riscv64-linux-gnu/lib/libc.a(memmem.o)
                0x000000000003ab0a                memmem
                0x000000000003ab0a                __memmem
 .text          0x000000000003acfe       0x9c /usr/lib/gcc-cross/riscv64-linux-gnu/12/../../../../riscv64-linux-gnu/lib/libc.a(argz-ctsep.o)
                0x000000000003acfe                __argz_create_sep
                0x000000000003acfe                argz_create_sep
 .text          0x000000000003ad9a       0xa4 /usr/lib/gcc-cross/riscv64-linux-gnu/12/../../../../riscv64-linux-gnu/lib/libc.a(argz-addsep.o)
                0x000000000003ad9a                argz_add_sep
                0x000000000003ad9a                __argz_add_sep
 .text          0x000000000003ae3e       0x38 /usr/lib/gcc-cross/riscv64-linux-gnu/12/../../../../riscv64-linux-gnu/lib/libc.a(wcslen.o)
                0x000000000003ae3e                wcslen
                0x000000000003ae3e                __wcslen
 .text          0x000000000003ae76        0x6 /usr/lib/gcc-cross/riscv64-linux-gnu/12/../../../../riscv64-linux-gnu/lib/libc.a(wmemcpy.o)
                0x000000000003ae76                wmemcpy
                0x000000000003ae76                __wmemcpy
 .text          0x000000000003ae7c        0x6 /usr/lib/gcc-cross/riscv64-linux-gnu/12/../../../../riscv64-linux-gnu/lib/libc.a(wmemmove.o)
                0x000000000003ae7c                __wmemmove
                0x000000000003ae7c                wmemmove
 .text          0x000000000003ae82      0x122 /usr/lib/gcc-cross/riscv64-linux-gnu/12/../../../../riscv64-linux-gnu/lib/libc.a(btowc.o)
                0x000000000003ae82                __btowc
                0x000000000003ae82                btowc
 .text          0x000000000003afa4      0x14a /usr/lib/gcc-cross/riscv64-linux-gnu/12/../../../../riscv64-linux-gnu/lib/libc.a(wcrtomb.o)
                0x000000000003afa4                __wcrtomb
                0x000000000003afa4                wcrtomb
 .text          0x000000000003b0ee      0x22c /usr/lib/gcc-cross/riscv64-linux-gnu/12/../../../../riscv64-linux-gnu/lib/libc.a(wcsrtombs.o)
                0x000000000003b0ee                wcsrtombs
                0x000000000003b0ee                __wcsrtombs
 .text          0x000000000003b31a       0x30 /usr/lib/gcc-cross/riscv64-linux-gnu/12/../../../../riscv64-linux-gnu/lib/libc.a(wcsnlen.o)
                0x000000000003b31a                wcsnlen
                0x000000000003b31a                __wcsnlen
 .text          0x000000000003b34a       0x10 /usr/lib/gcc-cross/riscv64-linux-gnu/12/../../../../riscv64-linux-gnu/lib/libc.a(wcschrnul.o)
                0x000000000003b34a                __wcschrnul
                0x000000000003b34a                wcschrnul
 .text          0x000000000003b35a      0x1b4 /usr/lib/gcc-cross/riscv64-linux-gnu/12/../../../../riscv64-linux-gnu/lib/libc.a(opendir.o)
                0x000000000003b424                __opendirat
                0x000000000003b452                __opendir
                0x000000000003b452                opendir
                0x000000000003b480                __alloc_dir
 .text          0x000000000003b50e       0x2c /usr/lib/gcc-cross/riscv64-linux-gnu/12/../../../../riscv64-linux-gnu/lib/libc.a(closedir.o)
                0x000000000003b50e                __closedir
                0x000000000003b50e                closedir
 .text          0x000000000003b53a       0x6c /usr/lib/gcc-cross/riscv64-linux-gnu/12/../../../../riscv64-linux-gnu/lib/libc.a(rewinddir.o)
                0x000000000003b53a                rewinddir
                0x000000000003b53a                __rewinddir
 .text          0x000000000003b5a6       0x32 /usr/lib/gcc-cross/riscv64-linux-gnu/12/../../../../riscv64-linux-gnu/lib/libc.a(getdents64.o)
                0x000000000003b5a6                __getdents
                0x000000000003b5a6                getdents64
                0x000000000003b5a6                __getdents64
 .text          0x000000000003b5d8       0xe4 /usr/lib/gcc-cross/riscv64-linux-gnu/12/../../../../riscv64-linux-gnu/lib/libc.a(readdir64.o)
                0x000000000003b5d8                readdir
                0x000000000003b5d8                __readdir64
                0x000000000003b5d8                __readdir
                0x000000000003b5d8                readdir64
 .text          0x000000000003b6bc       0x9a /usr/lib/gcc-cross/riscv64-linux-gnu/12/../../../../riscv64-linux-gnu/lib/libc.a(fdopendir.o)
                0x000000000003b6bc                fdopendir
                0x000000000003b6bc                __fdopendir
 *fill*         0x000000000003b756        0x2 
 .text          0x000000000003b758       0x18 /usr/lib/gcc-cross/riscv64-linux-gnu/12/../../../../riscv64-linux-gnu/lib/libc.a(uname.o)
                0x000000000003b758                uname
                0x000000000003b758                __uname
 .text          0x000000000003b770        0xc /usr/lib/gcc-cross/riscv64-linux-gnu/12/../../../../riscv64-linux-gnu/lib/libc.a(getuid.o)
                0x000000000003b770                getuid
                0x000000000003b770                __getuid
 .text          0x000000000003b77c        0xc /usr/lib/gcc-cross/riscv64-linux-gnu/12/../../../../riscv64-linux-gnu/lib/libc.a(geteuid.o)
                0x000000000003b77c                geteuid
                0x000000000003b77c                __geteuid
 .text          0x000000000003b788        0xc /usr/lib/gcc-cross/riscv64-linux-gnu/12/../../../../riscv64-linux-gnu/lib/libc.a(getgid.o)
                0x000000000003b788                getgid
                0x000000000003b788                __getgid
 .text          0x000000000003b794        0xc /usr/lib/gcc-cross/riscv64-linux-gnu/12/../../../../riscv64-linux-gnu/lib/libc.a(getegid.o)
                0x000000000003b794                getegid
                0x000000000003b794                __getegid
 .text          0x000000000003b7a0       0x18 /usr/lib/gcc-cross/riscv64-linux-gnu/12/../../../../riscv64-linux-gnu/lib/libc.a(sched_getp.o)
                0x000000000003b7a0                __sched_getparam
                0x000000000003b7a0                sched_getparam
 .text          0x000000000003b7b8       0x18 /usr/lib/gcc-cross/riscv64-linux-gnu/12/../../../../riscv64-linux-gnu/lib/libc.a(sched_sets.o)
                0x000000000003b7b8                sched_setscheduler
                0x000000000003b7b8                __sched_setscheduler
 .text          0x000000000003b7d0       0x18 /usr/lib/gcc-cross/riscv64-linux-gnu/12/../../../../riscv64-linux-gnu/lib/libc.a(sched_gets.o)
                0x000000000003b7d0                sched_getscheduler
                0x000000000003b7d0                __sched_getscheduler
 .text          0x000000000003b7e8       0x18 /usr/lib/gcc-cross/riscv64-linux-gnu/12/../../../../riscv64-linux-gnu/lib/libc.a(sched_primax.o)
                0x000000000003b7e8                __sched_get_priority_max
                0x000000000003b7e8                sched_get_priority_max
 .text          0x000000000003b800       0x18 /usr/lib/gcc-cross/riscv64-linux-gnu/12/../../../../riscv64-linux-gnu/lib/libc.a(sched_primin.o)
                0x000000000003b800                sched_get_priority_min
                0x000000000003b800                __sched_get_priority_min
 .text          0x000000000003b818       0x2c /usr/lib/gcc-cross/riscv64-linux-gnu/12/../../../../riscv64-linux-gnu/lib/libc.a(sched_cpucount.o)
                0x000000000003b818                __sched_cpucount
 .text          0x000000000003b844       0x10 /usr/lib/gcc-cross/riscv64-linux-gnu/12/../../../../riscv64-linux-gnu/lib/libc.a(lstat64.o)
                0x000000000003b844                __lstat64
                0x000000000003b844                lstat
                0x000000000003b844                lstat64
                0x000000000003b844                __lstat
 .text          0x000000000003b854       0xd0 /usr/lib/gcc-cross/riscv64-linux-gnu/12/../../../../riscv64-linux-gnu/lib/libc.a(openat64.o)
                0x000000000003b854                __openat64
                0x000000000003b854                openat64
                0x000000000003b854                __libc_openat64
                0x000000000003b854                __openat
                0x000000000003b854                openat
 .text          0x000000000003b924       0x34 /usr/lib/gcc-cross/riscv64-linux-gnu/12/../../../../riscv64-linux-gnu/lib/libc.a(isatty.o)
                0x000000000003b924                isatty
                0x000000000003b924                __isatty
 .text          0x000000000003b958       0x84 /usr/lib/gcc-cross/riscv64-linux-gnu/12/../../../../riscv64-linux-gnu/lib/libc.a(openat64_nocancel.o)
                0x000000000003b958                __openat64_nocancel
                0x000000000003b958                __openat_nocancel
 .text          0x000000000003b9dc       0x24 /usr/lib/gcc-cross/riscv64-linux-gnu/12/../../../../riscv64-linux-gnu/lib/libc.a(pread64_nocancel.o)
                0x000000000003b9dc                __pread64_nocancel
 .text          0x000000000003ba00       0xc6 /usr/lib/gcc-cross/riscv64-linux-gnu/12/../../../../riscv64-linux-gnu/lib/libc.a(tcgetattr.o)
                0x000000000003ba00                __tcgetattr
                0x000000000003ba00                tcgetattr
 .text          0x000000000003bac6        0x0 /usr/lib/gcc-cross/riscv64-linux-gnu/12/../../../../riscv64-linux-gnu/lib/libc.a(single_threaded.o)
 .text          0x000000000003bac6       0x78 /usr/lib/gcc-cross/riscv64-linux-gnu/12/../../../../riscv64-linux-gnu/lib/libc.a(wctrans.o)
                0x000000000003bac6                __wctrans
                0x000000000003bac6                wctrans
 .text          0x000000000003bb3e       0x5a /usr/lib/gcc-cross/riscv64-linux-gnu/12/../../../../riscv64-linux-gnu/lib/libc.a(towctrans.o)
                0x000000000003bb3e                towctrans
                0x000000000003bb3e                __towctrans
 .text          0x000000000003bb98      0x17c /usr/lib/gcc-cross/riscv64-linux-gnu/12/../../../../riscv64-linux-gnu/lib/libc.a(readonly-area.o)
                0x000000000003bb98                __readonly_area
 .text          0x000000000003bd14      0x316 /usr/lib/gcc-cross/riscv64-linux-gnu/12/../../../../riscv64-linux-gnu/lib/libc.a(dl-exception.o)
                0x000000000003bd24                _dl_error_free
                0x000000000003bd36                _dl_exception_create
                0x000000000003bdb8                _dl_exception_create_format
                0x000000000003c008                _dl_exception_free
 .text          0x000000000003c02a     0x2a0c /usr/lib/gcc-cross/riscv64-linux-gnu/12/../../../../riscv64-linux-gnu/lib/libc.a(dl-load.o)
                0x000000000003cb04                _dl_dst_count
                0x000000000003cb82                _dl_dst_substitute
                0x000000000003d0c0                _dl_init_paths
                0x000000000003d322                _dl_process_pt_gnu_property
                0x000000000003e162                _dl_map_object
                0x000000000003e876                _dl_rtld_di_serinfo
 .text          0x000000000003ea36      0xf7e /usr/lib/gcc-cross/riscv64-linux-gnu/12/../../../../riscv64-linux-gnu/lib/libc.a(dl-lookup.o)
                0x000000000003f1d6                _dl_lookup_symbol_x
 .text          0x000000000003f9b4      0x178 /usr/lib/gcc-cross/riscv64-linux-gnu/12/../../../../riscv64-linux-gnu/lib/libc.a(dl-minimal-malloc.o)
                0x000000000003f9b4                __minimal_malloc
                0x000000000003fa6a                __minimal_calloc
                0x000000000003fa8e                __minimal_free
                0x000000000003fac4                __minimal_realloc
 .text          0x000000000003fb2c      0x1ea /usr/lib/gcc-cross/riscv64-linux-gnu/12/../../../../riscv64-linux-gnu/lib/libc.a(dl-misc.o)
                0x000000000003fb2c                _dl_sysdep_read_whole_file
                0x000000000003fb90                _dl_name_match_p
                0x000000000003fbd4                _dl_higher_prime_number
                0x000000000003fc12                _dl_strtoul
 .text          0x000000000003fd16      0x27a /usr/lib/gcc-cross/riscv64-linux-gnu/12/../../../../riscv64-linux-gnu/lib/libc.a(dl-object.o)
                0x000000000003fd16                _dl_add_to_namespace_list
                0x000000000003fd8a                _dl_new_object
 .text          0x000000000003ff90      0x130 /usr/lib/gcc-cross/riscv64-linux-gnu/12/../../../../riscv64-linux-gnu/lib/libc.a(dl-origin.o)
                0x000000000003ff90                _dl_get_origin
 .text          0x00000000000400c0      0x56a /usr/lib/gcc-cross/riscv64-linux-gnu/12/../../../../riscv64-linux-gnu/lib/libc.a(dl-printf.o)
                0x000000000004051a                _dl_debug_printf
                0x000000000004054e                _dl_debug_printf_c
                0x0000000000040582                _dl_dprintf
                0x00000000000405a8                _dl_printf
                0x00000000000405d2                _dl_error_printf
                0x00000000000405fc                _dl_fatal_printf
 .text          0x000000000004062a      0x73e /usr/lib/gcc-cross/riscv64-linux-gnu/12/../../../../riscv64-linux-gnu/lib/libc.a(dl-profile.o)
                0x000000000004062a                _dl_start_profile
                0x0000000000040b9e                _dl_mcount
 .text          0x0000000000040d68      0xdcc /usr/lib/gcc-cross/riscv64-linux-gnu/12/../../../../riscv64-linux-gnu/lib/libc.a(dl-reloc.o)
                0x0000000000040d84                _dl_try_allocate_static_tls
                0x0000000000040e32                _dl_allocate_static_tls
                0x0000000000040ec6                _dl_protect_relro
                0x0000000000040f24                _dl_reloc_bad_type
                0x0000000000040ff0                _dl_relocate_object
 .text          0x0000000000041b34       0xb6 /usr/lib/gcc-cross/riscv64-linux-gnu/12/../../../../riscv64-linux-gnu/lib/libc.a(dl-scope.o)
                0x0000000000041b34                _dl_scope_free
 .text          0x0000000000041bea       0xa0 /usr/lib/gcc-cross/riscv64-linux-gnu/12/../../../../riscv64-linux-gnu/lib/libc.a(dl-setup_hash.o)
                0x0000000000041bea                _dl_setup_hash
 .text          0x0000000000041c8a      0x16a /usr/lib/gcc-cross/riscv64-linux-gnu/12/../../../../riscv64-linux-gnu/lib/libc.a(dl-thread_gscope_wait.o)
                0x0000000000041c8a                __thread_gscope_wait
 *fill*         0x0000000000041df4        0x0 
 .text          0x0000000000041df4       0x5e /usr/lib/gcc-cross/riscv64-linux-gnu/12/../../../../riscv64-linux-gnu/lib/libc.a(dl-trampoline.o)
                0x0000000000041df4                _dl_runtime_resolve
 .text          0x0000000000041e52      0x47c /usr/lib/gcc-cross/riscv64-linux-gnu/12/../../../../riscv64-linux-gnu/lib/libc.a(dl-cache.o)
                0x0000000000041e52                _dl_cache_libcmp
                0x0000000000042074                _dl_load_cache_lookup
                0x00000000000422a0                _dl_unload_cache
 .text          0x00000000000422ce      0x3bc /usr/lib/gcc-cross/riscv64-linux-gnu/12/../../../../riscv64-linux-gnu/lib/libc.a(dl-libc.o)
                0x000000000004242a                __libc_dlopen_mode
                0x0000000000042494                __libc_dlsym_private
                0x00000000000424fa                __libc_dlsym
                0x0000000000042560                __libc_dlvsym
                0x000000000004262a                __libc_dlclose
 .text          0x000000000004268a        0x0 /usr/lib/gcc-cross/riscv64-linux-gnu/12/../../../../riscv64-linux-gnu/lib/libc.a(lc-numeric.o)
 .text          0x000000000004268a        0x0 /usr/lib/gcc-cross/riscv64-linux-gnu/12/../../../../riscv64-linux-gnu/lib/libc.a(C-messages.o)
 .text          0x000000000004268a        0x0 /usr/lib/gcc-cross/riscv64-linux-gnu/12/../../../../riscv64-linux-gnu/lib/libc.a(C-monetary.o)
 .text          0x000000000004268a        0x0 /usr/lib/gcc-cross/riscv64-linux-gnu/12/../../../../riscv64-linux-gnu/lib/libc.a(C-numeric.o)
 .text          0x000000000004268a        0x0 /usr/lib/gcc-cross/riscv64-linux-gnu/12/../../../../riscv64-linux-gnu/lib/libc.a(C-time.o)
 .text          0x000000000004268a        0x0 /usr/lib/gcc-cross/riscv64-linux-gnu/12/../../../../riscv64-linux-gnu/lib/libc.a(C-paper.o)
 .text          0x000000000004268a        0x0 /usr/lib/gcc-cross/riscv64-linux-gnu/12/../../../../riscv64-linux-gnu/lib/libc.a(C-name.o)
 .text          0x000000000004268a        0x0 /usr/lib/gcc-cross/riscv64-linux-gnu/12/../../../../riscv64-linux-gnu/lib/libc.a(C-address.o)
 .text          0x000000000004268a        0x0 /usr/lib/gcc-cross/riscv64-linux-gnu/12/../../../../riscv64-linux-gnu/lib/libc.a(C-telephone.o)
 .text          0x000000000004268a        0x0 /usr/lib/gcc-cross/riscv64-linux-gnu/12/../../../../riscv64-linux-gnu/lib/libc.a(C-measurement.o)
 .text          0x000000000004268a        0x0 /usr/lib/gcc-cross/riscv64-linux-gnu/12/../../../../riscv64-linux-gnu/lib/libc.a(C-identification.o)
 .text          0x000000000004268a        0x0 /usr/lib/gcc-cross/riscv64-linux-gnu/12/../../../../riscv64-linux-gnu/lib/libc.a(C-collate.o)
 .text          0x000000000004268a      0x11e /usr/lib/gcc-cross/riscv64-linux-gnu/12/../../../../riscv64-linux-gnu/lib/libc.a(_itoa.o)
                0x000000000004268a                _itoa_word
                0x0000000000042746                _fitoa_word
 .text          0x00000000000427a8        0x0 /usr/lib/gcc-cross/riscv64-linux-gnu/12/../../../../riscv64-linux-gnu/lib/libc.a(itoa-digits.o)
 .text          0x00000000000427a8        0x0 /usr/lib/gcc-cross/riscv64-linux-gnu/12/../../../../riscv64-linux-gnu/lib/libc.a(itoa-udigits.o)
 .text          0x00000000000427a8        0x0 /usr/lib/gcc-cross/riscv64-linux-gnu/12/../../../../riscv64-linux-gnu/lib/libc.a(itowa-digits.o)
 .text          0x00000000000427a8     0x1fe8 /usr/lib/gcc-cross/riscv64-linux-gnu/12/../../../../riscv64-linux-gnu/lib/libc.a(printf_fp.o)
                0x0000000000042aa0                __printf_fp_l
                0x0000000000044736                ___printf_fp
                0x0000000000044736                __printf_fp
                0x000000000004474c                __guess_grouping
 .text          0x0000000000044790       0xc0 /usr/lib/gcc-cross/riscv64-linux-gnu/12/../../../../riscv64-linux-gnu/lib/libc.a(reg-printf.o)
                0x0000000000044790                __register_printf_specifier
                0x0000000000044790                register_printf_specifier
                0x000000000004484e                __register_printf_function
                0x000000000004484e                register_printf_function
 .text          0x0000000000044850     0x107c /usr/lib/gcc-cross/riscv64-linux-gnu/12/../../../../riscv64-linux-gnu/lib/libc.a(printf_fphex.o)
                0x0000000000044850                __printf_fphex
 .text          0x00000000000458cc      0x242 /usr/lib/gcc-cross/riscv64-linux-gnu/12/../../../../riscv64-linux-gnu/lib/libc.a(reg-modifier.o)
                0x00000000000458cc                __register_printf_modifier
                0x00000000000458cc                register_printf_modifier
                0x00000000000459f2                __handle_registered_modifier_mb
                0x0000000000045a80                __handle_registered_modifier_wc
 .text          0x0000000000045b0e       0xc8 /usr/lib/gcc-cross/riscv64-linux-gnu/12/../../../../riscv64-linux-gnu/lib/libc.a(reg-type.o)
                0x0000000000045b0e                __register_printf_type
                0x0000000000045b0e                register_printf_type
 .text          0x0000000000045bd6       0x42 /usr/lib/gcc-cross/riscv64-linux-gnu/12/../../../../riscv64-linux-gnu/lib/libc.a(snprintf.o)
                0x0000000000045bd6                snprintf
                0x0000000000045bd6                __snprintf
 .text          0x0000000000045c18       0x28 /usr/lib/gcc-cross/riscv64-linux-gnu/12/../../../../riscv64-linux-gnu/lib/libc.a(funlockfile.o)
                0x0000000000045c18                _IO_funlockfile
                0x0000000000045c18                funlockfile
                0x0000000000045c18                __funlockfile
 .text          0x0000000000045c40       0xfc /usr/lib/gcc-cross/riscv64-linux-gnu/12/../../../../riscv64-linux-gnu/lib/libc.a(vsnprintf.o)
                0x0000000000045c8c                __vsnprintf_internal
                0x0000000000045d38                vsnprintf
                0x0000000000045d38                ___vsnprintf
                0x0000000000045d38                __vsnprintf
 .text          0x0000000000045d3c       0x20 /usr/lib/gcc-cross/riscv64-linux-gnu/12/../../../../riscv64-linux-gnu/lib/libc.a(cleanup_compat.o)
                0x0000000000045d3c                __pthread_cleanup_push
                0x0000000000045d3c                _pthread_cleanup_push
                0x0000000000045d4c                __pthread_cleanup_pop
                0x0000000000045d4c                _pthread_cleanup_pop
 .text          0x0000000000045d5c      0x20c /usr/lib/gcc-cross/riscv64-linux-gnu/12/../../../../riscv64-linux-gnu/lib/libc.a(nptl-stack.o)
                0x0000000000045d5c                __nptl_stack_list_del
                0x0000000000045d7c                __nptl_stack_list_add
                0x0000000000045da6                __nptl_free_stacks
                0x0000000000045e48                __nptl_deallocate_stack
                0x0000000000045f36                __pthread_get_minstack
 .text          0x0000000000045f68      0x136 /usr/lib/gcc-cross/riscv64-linux-gnu/12/../../../../riscv64-linux-gnu/lib/libc.a(strspn.o)
                0x0000000000045f68                strspn
 .text          0x000000000004609e       0x42 /usr/lib/gcc-cross/riscv64-linux-gnu/12/../../../../riscv64-linux-gnu/lib/libc.a(strsep.o)
                0x000000000004609e                __strsep
                0x000000000004609e                strsep
                0x000000000004609e                __strsep_g
 .text          0x00000000000460e0       0x72 /usr/lib/gcc-cross/riscv64-linux-gnu/12/../../../../riscv64-linux-gnu/lib/libc.a(wmemchr.o)
                0x00000000000460e0                wmemchr
                0x00000000000460e0                __wmemchr
 .text          0x0000000000046152       0x46 /usr/lib/gcc-cross/riscv64-linux-gnu/12/../../../../riscv64-linux-gnu/lib/libc.a(wmemset.o)
                0x0000000000046152                wmemset
                0x0000000000046152                __wmemset
 .text          0x0000000000046198        0xe /usr/lib/gcc-cross/riscv64-linux-gnu/12/../../../../riscv64-linux-gnu/lib/libc.a(stat64.o)
                0x0000000000046198                stat64
                0x0000000000046198                __stat
                0x0000000000046198                __stat64
                0x0000000000046198                stat
 .text          0x00000000000461a6      0x176 /usr/lib/gcc-cross/riscv64-linux-gnu/12/../../../../riscv64-linux-gnu/lib/libc.a(profil.o)
                0x00000000000461e6                __profil
                0x00000000000461e6                profil
 .text          0x000000000004631c        0xc /usr/lib/gcc-cross/riscv64-linux-gnu/12/../../../../riscv64-linux-gnu/lib/libc.a(prof-freq.o)
                0x000000000004631c                __profile_frequency
 .text          0x0000000000046328      0xbb6 /usr/lib/gcc-cross/riscv64-linux-gnu/12/../../../../riscv64-linux-gnu/lib/libc.a(dl-close.o)
                0x0000000000046482                _dl_close_worker
                0x0000000000046e86                _dl_close
 .text          0x0000000000046ede      0x168 /usr/lib/gcc-cross/riscv64-linux-gnu/12/../../../../riscv64-linux-gnu/lib/libc.a(dl-execstack.o)
                0x0000000000046ede                _dl_make_stacks_executable
                0x0000000000047018                __nptl_change_stack_perm
 .text          0x0000000000047046      0xa3e /usr/lib/gcc-cross/riscv64-linux-gnu/12/../../../../riscv64-linux-gnu/lib/libc.a(dl-find_object.o)
                0x0000000000047278                _dl_find_object
                0x00000000000474c6                _dlfo_sort_mappings
                0x00000000000474d0                _dl_find_object_init
                0x0000000000047604                _dl_find_object_update
                0x00000000000479b2                _dl_find_object_dlclose
                0x0000000000047a3e                _dl_find_object_freeres
 .text          0x0000000000047a84      0xd72 /usr/lib/gcc-cross/riscv64-linux-gnu/12/../../../../riscv64-linux-gnu/lib/libc.a(dl-open.o)
                0x0000000000047dea                _dl_find_dso_for_object
                0x0000000000047e70                _dl_open
                0x0000000000047fc4                _dl_show_scope
 .text          0x00000000000487f6      0x334 /usr/lib/gcc-cross/riscv64-linux-gnu/12/../../../../riscv64-linux-gnu/lib/libc.a(dl-runtime.o)
                0x0000000000048812                _dl_fixup
                0x0000000000048976                _dl_profile_fixup
 .text          0x0000000000048b2a      0x456 /usr/lib/gcc-cross/riscv64-linux-gnu/12/../../../../riscv64-linux-gnu/lib/libc.a(dl-sort-maps.o)
                0x0000000000048bfa                _dl_sort_maps_init
                0x0000000000048c20                _dl_sort_maps
 .text          0x0000000000048f80      0x59c /usr/lib/gcc-cross/riscv64-linux-gnu/12/../../../../riscv64-linux-gnu/lib/libc.a(dl-version.o)
                0x0000000000048f80                _dl_check_map_versions
                0x00000000000494c6                _dl_check_all_versions
 .text          0x000000000004951c       0x5c /usr/lib/gcc-cross/riscv64-linux-gnu/12/../../../../riscv64-linux-gnu/lib/libc.a(dl-addr-obj.o)
                0x000000000004951c                _dl_addr_inside_object
 .text          0x0000000000049578       0xd0 /usr/lib/gcc-cross/riscv64-linux-gnu/12/../../../../riscv64-linux-gnu/lib/libc.a(rtld_static_init.o)
                0x0000000000049578                __rtld_static_init
 .text          0x0000000000049648        0x0 /usr/lib/gcc-cross/riscv64-linux-gnu/12/../../../../riscv64-linux-gnu/lib/libc.a(lc-monetary.o)
 .text          0x0000000000049648       0x36 /usr/lib/gcc-cross/riscv64-linux-gnu/12/../../../../riscv64-linux-gnu/lib/libc.a(cmp.o)
                0x0000000000049648                __mpn_cmp
 .text          0x000000000004967e      0x514 /usr/lib/gcc-cross/riscv64-linux-gnu/12/../../../../riscv64-linux-gnu/lib/libc.a(divrem.o)
                0x000000000004967e                __mpn_divrem
 .text          0x0000000000049b92       0x5c /usr/lib/gcc-cross/riscv64-linux-gnu/12/../../../../riscv64-linux-gnu/lib/libc.a(lshift.o)
                0x0000000000049b92                __mpn_lshift
 .text          0x0000000000049bee       0x76 /usr/lib/gcc-cross/riscv64-linux-gnu/12/../../../../riscv64-linux-gnu/lib/libc.a(rshift.o)
                0x0000000000049bee                __mpn_rshift
 .text          0x0000000000049c64      0x268 /usr/lib/gcc-cross/riscv64-linux-gnu/12/../../../../riscv64-linux-gnu/lib/libc.a(mul.o)
                0x0000000000049c64                __mpn_mul
 .text          0x0000000000049ecc       0x68 /usr/lib/gcc-cross/riscv64-linux-gnu/12/../../../../riscv64-linux-gnu/lib/libc.a(mul_1.o)
                0x0000000000049ecc                __mpn_mul_1
 .text          0x0000000000049f34      0x706 /usr/lib/gcc-cross/riscv64-linux-gnu/12/../../../../riscv64-linux-gnu/lib/libc.a(mul_n.o)
                0x0000000000049f34                __mpn_impn_mul_n_basecase
                0x000000000004a004                __mpn_impn_mul_n
                0x000000000004a2a0                __mpn_impn_sqr_n_basecase
                0x000000000004a36e                __mpn_impn_sqr_n
                0x000000000004a5c4                __mpn_mul_n
 .text          0x000000000004a63a       0x36 /usr/lib/gcc-cross/riscv64-linux-gnu/12/../../../../riscv64-linux-gnu/lib/libc.a(sub_n.o)
                0x000000000004a63a                __mpn_sub_n
 .text          0x000000000004a670       0x78 /usr/lib/gcc-cross/riscv64-linux-gnu/12/../../../../riscv64-linux-gnu/lib/libc.a(submul_1.o)
                0x000000000004a670                __mpn_submul_1
 .text          0x000000000004a6e8       0x94 /usr/lib/gcc-cross/riscv64-linux-gnu/12/../../../../riscv64-linux-gnu/lib/libc.a(dbl2mpn.o)
                0x000000000004a6e8                __mpn_extract_double
 .text          0x000000000004a77c      0x11c /usr/lib/gcc-cross/riscv64-linux-gnu/12/../../../../riscv64-linux-gnu/lib/libc.a(ldbl2mpn.o)
                0x000000000004a77c                __mpn_extract_long_double
 .text          0x000000000004a898        0x0 /usr/lib/gcc-cross/riscv64-linux-gnu/12/../../../../riscv64-linux-gnu/lib/libc.a(fpioconst.o)
 .text          0x000000000004a898        0x0 /usr/lib/gcc-cross/riscv64-linux-gnu/12/../../../../riscv64-linux-gnu/lib/libc.a(mp_clz_tab.o)
 .text          0x000000000004a898        0x8 /usr/lib/gcc-cross/riscv64-linux-gnu/12/../../../../riscv64-linux-gnu/lib/libc.a(dladdr.o)
                0x000000000004a898                __dladdr
                0x000000000004a898                dladdr
 .text          0x000000000004a8a0       0x1c /usr/lib/gcc-cross/riscv64-linux-gnu/12/../../../../riscv64-linux-gnu/lib/libc.a(dladdr1.o)
                0x000000000004a8a0                dladdr1
                0x000000000004a8a0                __dladdr1
 .text          0x000000000004a8bc       0x20 /usr/lib/gcc-cross/riscv64-linux-gnu/12/../../../../riscv64-linux-gnu/lib/libc.a(dlclose.o)
                0x000000000004a8bc                dlclose
                0x000000000004a8bc                __dlclose
 .text          0x000000000004a8dc      0x2c8 /usr/lib/gcc-cross/riscv64-linux-gnu/12/../../../../riscv64-linux-gnu/lib/libc.a(dlerror.o)
                0x000000000004a8dc                dlerror
                0x000000000004a8dc                __dlerror
                0x000000000004aa50                _dlerror_run
 .text          0x000000000004aba4       0xfa /usr/lib/gcc-cross/riscv64-linux-gnu/12/../../../../riscv64-linux-gnu/lib/libc.a(dlinfo.o)
                0x000000000004ac54                __dlinfo
                0x000000000004ac54                dlinfo
 .text          0x000000000004ac9e       0xfe /usr/lib/gcc-cross/riscv64-linux-gnu/12/../../../../riscv64-linux-gnu/lib/libc.a(dlmopen.o)
                0x000000000004ad04                __dlmopen
                0x000000000004ad50                dlmopen
                0x000000000004ad50                ___dlmopen
 .text          0x000000000004ad9c      0x112 /usr/lib/gcc-cross/riscv64-linux-gnu/12/../../../../riscv64-linux-gnu/lib/libc.a(dlopen.o)
                0x000000000004ae1a                __dlopen
                0x000000000004ae64                ___dlopen
                0x000000000004ae64                dlopen
 .text          0x000000000004aeae       0xe4 /usr/lib/gcc-cross/riscv64-linux-gnu/12/../../../../riscv64-linux-gnu/lib/libc.a(dlsym.o)
                0x000000000004aeca                __dlsym
                0x000000000004af2e                ___dlsym
                0x000000000004af2e                dlsym
 .text          0x000000000004af92       0xea /usr/lib/gcc-cross/riscv64-linux-gnu/12/../../../../riscv64-linux-gnu/lib/libc.a(dlvsym.o)
                0x000000000004afb0                __dlvsym
                0x000000000004b016                ___dlvsym
                0x000000000004b016                dlvsym
 .text          0x000000000004b07c       0x5e /usr/lib/gcc-cross/riscv64-linux-gnu/12/../../../../riscv64-linux-gnu/lib/libc.a(libc_dlerror_result.o)
                0x000000000004b07c                __libc_dlerror_result_free
 .text          0x000000000004b0da       0x2a /usr/lib/gcc-cross/riscv64-linux-gnu/12/../../../../riscv64-linux-gnu/lib/libc.a(setitimer.o)
                0x000000000004b0da                setitimer
                0x000000000004b0da                __setitimer
 .text          0x000000000004b104       0x78 /usr/lib/gcc-cross/riscv64-linux-gnu/12/../../../../riscv64-linux-gnu/lib/libc.a(dl-call-libc-early-init.o)
                0x000000000004b104                _dl_call_libc_early_init
 .text          0x000000000004b17c      0xc3a /usr/lib/gcc-cross/riscv64-linux-gnu/12/../../../../riscv64-linux-gnu/lib/libc.a(dl-deps.o)
                0x000000000004b21a                _dl_map_object_deps
 .text          0x000000000004bdb6      0x1ec /usr/lib/gcc-cross/riscv64-linux-gnu/12/../../../../riscv64-linux-gnu/lib/libc.a(dl-init.o)
                0x000000000004bea8                _dl_init
 .text          0x000000000004bfa2      0x1de /usr/lib/gcc-cross/riscv64-linux-gnu/12/../../../../riscv64-linux-gnu/lib/libc.a(dl-lookup-direct.o)
                0x000000000004c056                _dl_lookup_direct
 .text          0x000000000004c180      0x256 /usr/lib/gcc-cross/riscv64-linux-gnu/12/../../../../riscv64-linux-gnu/lib/libc.a(dl-addr.o)
                0x000000000004c180                _dl_addr
 .text          0x000000000004c3d6      0x278 /usr/lib/gcc-cross/riscv64-linux-gnu/12/../../../../riscv64-linux-gnu/lib/libc.a(dl-sym.o)
                0x000000000004c5a2                _dl_vsym
                0x000000000004c648                _dl_sym
 .text          0x000000000004c64e       0x36 /usr/lib/gcc-cross/riscv64-linux-gnu/12/../../../../riscv64-linux-gnu/lib/libc.a(add_n.o)
                0x000000000004c64e                __mpn_add_n
 .text          0x000000000004c684       0x76 /usr/lib/gcc-cross/riscv64-linux-gnu/12/../../../../riscv64-linux-gnu/lib/libc.a(addmul_1.o)
                0x000000000004c684                __mpn_addmul_1
 .text          0x000000000004c6fa       0x54 /usr/lib/gcc-cross/riscv64-linux-gnu/12/libgcc.a(_ctzsi2.o)
                0x000000000004c6fa                __ctzdi2
 .text          0x000000000004c74e       0x28 /usr/lib/gcc-cross/riscv64-linux-gnu/12/libgcc.a(_bswapsi2.o)
                0x000000000004c74e                __bswapsi2
 .text          0x000000000004c776       0xc0 /usr/lib/gcc-cross/riscv64-linux-gnu/12/libgcc.a(letf2.o)
                0x000000000004c776                __letf2
                0x000000000004c776                __lttf2
 .text          0x000000000004c836       0x6a /usr/lib/gcc-cross/riscv64-linux-gnu/12/libgcc.a(unordtf2.o)
                0x000000000004c836                __unordtf2
 .text          0x000000000004c8a0     0x2b12 /usr/lib/gcc-cross/riscv64-linux-gnu/12/libgcc_eh.a(unwind-dw2.o)
                0x000000000004e826                _Unwind_GetGR
                0x000000000004e86e                _Unwind_GetCFA
                0x000000000004e874                _Unwind_SetGR
                0x000000000004e8be                _Unwind_GetIP
                0x000000000004e8c4                _Unwind_GetIPInfo
                0x000000000004e8d2                _Unwind_SetIP
                0x000000000004e8d8                _Unwind_GetLanguageSpecificData
                0x000000000004e8de                _Unwind_GetRegionStart
                0x000000000004e8e4                _Unwind_FindEnclosingFunction
                0x000000000004e8fa                _Unwind_GetDataRelBase
                0x000000000004e900                _Unwind_GetTextRelBase
                0x000000000004e906                __frame_state_for
                0x000000000004e9ec                _Unwind_RaiseException
                0x000000000004ed1a                _Unwind_ForcedUnwind
                0x000000000004eef4                _Unwind_Resume
                0x000000000004f068                _Unwind_Resume_or_Rethrow
                0x000000000004f24a                _Unwind_DeleteException
                0x000000000004f256                _Unwind_Backtrace
 .text          0x000000000004f3b2     0x16f2 /usr/lib/gcc-cross/riscv64-linux-gnu/12/libgcc_eh.a(unwind-dw2-fde-dip.o)
                0x0000000000050410                __register_frame_info_bases
                0x0000000000050494                __register_frame_info
                0x000000000005051c                __register_frame
                0x0000000000050542                __register_frame_info_table_bases
                0x00000000000505bc                __register_frame_info_table
                0x000000000005063a                __register_frame_table
                0x00000000000506c2                __deregister_frame_info_bases
                0x00000000000507a8                __deregister_frame_info
                0x00000000000507aa                __deregister_frame
                0x00000000000507c0                _Unwind_Find_FDE
 .text          0x0000000000050aa4      0x3d6 /usr/lib/gcc-cross/riscv64-linux-gnu/12/libgcc_eh.a(unwind-c.o)
                0x0000000000050c88                __gcc_personality_v0
 .text          0x0000000000050e7a        0x0 /usr/lib/gcc-cross/riscv64-linux-gnu/12/crtend.o
 .text          0x0000000000050e7a        0x0 /usr/lib/gcc-cross/riscv64-linux-gnu/12/crtn.o
 *(.gnu.warning)

__libc_freeres_fn
                0x0000000000050e7a      0x81a
 __libc_freeres_fn
                0x0000000000050e7a       0x7e /usr/lib/gcc-cross/riscv64-linux-gnu/12/../../../../riscv64-linux-gnu/lib/libc.a(dcigettext.o)
 __libc_freeres_fn
                0x0000000000050ef8       0x34 /usr/lib/gcc-cross/riscv64-linux-gnu/12/../../../../riscv64-linux-gnu/lib/libc.a(finddomain.o)
                0x0000000000050ef8                _nl_finddomain_subfreeres
 __libc_freeres_fn
                0x0000000000050f2c       0x96 /usr/lib/gcc-cross/riscv64-linux-gnu/12/../../../../riscv64-linux-gnu/lib/libc.a(loadmsgcat.o)
                0x0000000000050f2c                _nl_unload_domain
 __libc_freeres_fn
                0x0000000000050fc2       0x2c /usr/lib/gcc-cross/riscv64-linux-gnu/12/../../../../riscv64-linux-gnu/lib/libc.a(genops.o)
 __libc_freeres_fn
                0x0000000000050fee      0x116 /usr/lib/gcc-cross/riscv64-linux-gnu/12/../../../../riscv64-linux-gnu/lib/libc.a(gconv_db.o)
 __libc_freeres_fn
                0x0000000000051104       0x1c /usr/lib/gcc-cross/riscv64-linux-gnu/12/../../../../riscv64-linux-gnu/lib/libc.a(gconv_conf.o)
 __libc_freeres_fn
                0x0000000000051120       0x1c /usr/lib/gcc-cross/riscv64-linux-gnu/12/../../../../riscv64-linux-gnu/lib/libc.a(gconv_cache.o)
 __libc_freeres_fn
                0x000000000005113c       0x44 /usr/lib/gcc-cross/riscv64-linux-gnu/12/../../../../riscv64-linux-gnu/lib/libc.a(gconv_dl.o)
 __libc_freeres_fn
                0x0000000000051180      0x286 /usr/lib/gcc-cross/riscv64-linux-gnu/12/../../../../riscv64-linux-gnu/lib/libc.a(setlocale.o)
                0x0000000000051210                _nl_locale_subfreeres
 __libc_freeres_fn
                0x0000000000051406       0xe0 /usr/lib/gcc-cross/riscv64-linux-gnu/12/../../../../riscv64-linux-gnu/lib/libc.a(loadarchive.o)
                0x0000000000051406                _nl_archive_subfreeres
 __libc_freeres_fn
                0x00000000000514e6       0x2c /usr/lib/gcc-cross/riscv64-linux-gnu/12/../../../../riscv64-linux-gnu/lib/libc.a(setenv.o)
 __libc_freeres_fn
                0x0000000000051512      0x128 /usr/lib/gcc-cross/riscv64-linux-gnu/12/../../../../riscv64-linux-gnu/lib/libc.a(dl-libc.o)
 __libc_freeres_fn
                0x000000000005163a       0x5a /usr/lib/gcc-cross/riscv64-linux-gnu/12/../../../../riscv64-linux-gnu/lib/libc.a(reg-modifier.o)

.fini
 *(SORT_NONE(.fini))
                [!provide]                        PROVIDE (__etext = .)
                [!provide]                        PROVIDE (_etext = .)
                [!provide]                        PROVIDE (etext = .)

.rodata         0x00000000000516a0    0x1b9cc
 *(.rodata .rodata.* .gnu.linkonce.r.*)
 .rodata.cst4   0x00000000000516a0        0x4 /usr/lib/gcc-cross/riscv64-linux-gnu/12/../../../../riscv64-linux-gnu/lib/crt1.o
                0x00000000000516a0                _IO_stdin_used
 *fill*         0x00000000000516a4        0x4 
 .rodata.str1.8
                0x00000000000516a8       0xc7 /usr/lib/gcc-cross/riscv64-linux-gnu/12/../../../../riscv64-linux-gnu/lib/libc.a(libc-start.o)
 *fill*         0x000000000005176f        0x1 
 .rodata.str1.8
                0x0000000000051770       0x1a /usr/lib/gcc-cross/riscv64-linux-gnu/12/../../../../riscv64-linux-gnu/lib/libc.a(check_fds.o)
 *fill*         0x000000000005178a        0x6 
 .rodata.str1.8
                0x0000000000051790       0x53 /usr/lib/gcc-cross/riscv64-linux-gnu/12/../../../../riscv64-linux-gnu/lib/libc.a(assert.o)
                                         0x5b (size before relaxing)
 *fill*         0x00000000000517e3        0x1 
 .rodata        0x00000000000517e4       0x2c /usr/lib/gcc-cross/riscv64-linux-gnu/12/../../../../riscv64-linux-gnu/lib/libc.a(dcigettext.o)
 .rodata.str1.8
                0x0000000000051810       0x71 /usr/lib/gcc-cross/riscv64-linux-gnu/12/../../../../riscv64-linux-gnu/lib/libc.a(dcigettext.o)
                                         0x79 (size before relaxing)
                0x0000000000051858                _nl_POSIX_name
                0x0000000000051860                _nl_default_dirname
                0x0000000000051878                _nl_default_default_domain
 *fill*         0x0000000000051881        0x7 
 .rodata.str1.8
                0x0000000000051888       0x53 /usr/lib/gcc-cross/riscv64-linux-gnu/12/../../../../riscv64-linux-gnu/lib/libc.a(loadmsgcat.o)
                                         0x69 (size before relaxing)
 *fill*         0x00000000000518db        0x1 
 .rodata        0x00000000000518dc      0x498 /usr/lib/gcc-cross/riscv64-linux-gnu/12/../../../../riscv64-linux-gnu/lib/libc.a(loadmsgcat.o)
 *fill*         0x0000000000051d74        0x4 
 .rodata.str1.8
                0x0000000000051d78       0x16 /usr/lib/gcc-cross/riscv64-linux-gnu/12/../../../../riscv64-linux-gnu/lib/libc.a(localealias.o)
                                         0x2a (size before relaxing)
 *fill*         0x0000000000051d8e        0x2 
 .rodata.str1.8
                0x0000000000051d90       0x2b /usr/lib/gcc-cross/riscv64-linux-gnu/12/../../../../riscv64-linux-gnu/lib/libc.a(l10nflist.o)
 *fill*         0x0000000000051dbb        0x5 
 .rodata.cst8   0x0000000000051dc0        0x8 /usr/lib/gcc-cross/riscv64-linux-gnu/12/../../../../riscv64-linux-gnu/lib/libc.a(explodename.o)
 .rodata        0x0000000000051dc8      0x3d3 /usr/lib/gcc-cross/riscv64-linux-gnu/12/../../../../riscv64-linux-gnu/lib/libc.a(plural.o)
 *fill*         0x000000000005219b        0x5 
 .rodata.str1.8
                0x00000000000521a0       0x24 /usr/lib/gcc-cross/riscv64-linux-gnu/12/../../../../riscv64-linux-gnu/lib/libc.a(plural.o)
 *fill*         0x00000000000521c4        0x4 
 .rodata.str1.8
                0x00000000000521c8       0x12 /usr/lib/gcc-cross/riscv64-linux-gnu/12/../../../../riscv64-linux-gnu/lib/libc.a(plural-exp.o)
 *fill*         0x00000000000521da        0x6 
 .rodata        0x00000000000521e0       0x40 /usr/lib/gcc-cross/riscv64-linux-gnu/12/../../../../riscv64-linux-gnu/lib/libc.a(plural-exp.o)
 .rodata.str1.8
                0x0000000000052220       0x52 /usr/lib/gcc-cross/riscv64-linux-gnu/12/../../../../riscv64-linux-gnu/lib/libc.a(cxa_atexit.o)
 *fill*         0x0000000000052272        0x6 
 .rodata.str1.8
                0x0000000000052278       0x44 /usr/lib/gcc-cross/riscv64-linux-gnu/12/../../../../riscv64-linux-gnu/lib/libc.a(wfileops.o)
 *fill*         0x00000000000522bc        0x4 
 .rodata.str1.8
                0x00000000000522c0       0x4a /usr/lib/gcc-cross/riscv64-linux-gnu/12/../../../../riscv64-linux-gnu/lib/libc.a(iofwide.o)
 .rodata.str1.8
                0x000000000005230a        0x3 /usr/lib/gcc-cross/riscv64-linux-gnu/12/../../../../riscv64-linux-gnu/lib/libc.a(libc_fatal.o)
 *fill*         0x000000000005230a        0x6 
 .rodata.str1.8
                0x0000000000052310       0x35 /usr/lib/gcc-cross/riscv64-linux-gnu/12/../../../../riscv64-linux-gnu/lib/libc.a(vtables.o)
 *fill*         0x0000000000052345        0x3 
 .rodata.str1.8
                0x0000000000052348       0x2b /usr/lib/gcc-cross/riscv64-linux-gnu/12/../../../../riscv64-linux-gnu/lib/libc.a(fileops.o)
                                         0x5b (size before relaxing)
 *fill*         0x0000000000052373        0x1 
 .rodata        0x0000000000052374       0x5c /usr/lib/gcc-cross/riscv64-linux-gnu/12/../../../../riscv64-linux-gnu/lib/libc.a(fileops.o)
 .rodata.cst8   0x00000000000523d0        0x8 /usr/lib/gcc-cross/riscv64-linux-gnu/12/../../../../riscv64-linux-gnu/lib/libc.a(fileops.o)
 .rodata.str1.8
                0x00000000000523d8       0x38 /usr/lib/gcc-cross/riscv64-linux-gnu/12/../../../../riscv64-linux-gnu/lib/libc.a(strops.o)
 .rodata.str1.8
                0x0000000000052410       0x37 /usr/lib/gcc-cross/riscv64-linux-gnu/12/../../../../riscv64-linux-gnu/lib/libc.a(lowlevellock.o)
 *fill*         0x0000000000052447        0x1 
 .rodata        0x0000000000052448       0x80 /usr/lib/gcc-cross/riscv64-linux-gnu/12/../../../../riscv64-linux-gnu/lib/libc.a(pthread_kill.o)
 .rodata        0x00000000000524c8        0x8 /usr/lib/gcc-cross/riscv64-linux-gnu/12/../../../../riscv64-linux-gnu/lib/libc.a(pthread_rwlock_init.o)
 .rodata.str1.8
                0x00000000000524d0       0x37 /usr/lib/gcc-cross/riscv64-linux-gnu/12/../../../../riscv64-linux-gnu/lib/libc.a(pthread_rwlock_rdlock.o)
 .rodata.str1.8
                0x00000000000524d0       0x37 /usr/lib/gcc-cross/riscv64-linux-gnu/12/../../../../riscv64-linux-gnu/lib/libc.a(pthread_rwlock_unlock.o)
 .rodata.str1.8
                0x00000000000524d0       0x37 /usr/lib/gcc-cross/riscv64-linux-gnu/12/../../../../riscv64-linux-gnu/lib/libc.a(pthread_rwlock_wrlock.o)
 .rodata.str1.8
                0x00000000000524d0     0x142e /usr/lib/gcc-cross/riscv64-linux-gnu/12/../../../../riscv64-linux-gnu/lib/libc.a(malloc.o)
                                       0x1446 (size before relaxing)
 *fill*         0x00000000000538fe        0x2 
 .rodata        0x0000000000053900       0x28 /usr/lib/gcc-cross/riscv64-linux-gnu/12/../../../../riscv64-linux-gnu/lib/libc.a(malloc.o)
 .rodata.cst8   0x0000000000053928        0x8 /usr/lib/gcc-cross/riscv64-linux-gnu/12/../../../../riscv64-linux-gnu/lib/libc.a(strchr.o)
 .rodata.cst8   0x0000000000053930       0x10 /usr/lib/gcc-cross/riscv64-linux-gnu/12/../../../../riscv64-linux-gnu/lib/libc.a(strlen.o)
 .rodata        0x0000000000053940       0x40 /usr/lib/gcc-cross/riscv64-linux-gnu/12/../../../../riscv64-linux-gnu/lib/libc.a(wordcopy.o)
 .rodata.cst8   0x0000000000053980        0x8 /usr/lib/gcc-cross/riscv64-linux-gnu/12/../../../../riscv64-linux-gnu/lib/libc.a(strchrnul.o)
 .rodata.str1.8
                0x0000000000053980       0x59 /usr/lib/gcc-cross/riscv64-linux-gnu/12/../../../../riscv64-linux-gnu/lib/libc.a(wcsmbsload.o)
                                         0x81 (size before relaxing)
 *fill*         0x00000000000539d9        0x7 
 .rodata.str1.8
                0x00000000000539e0      0x11e /usr/lib/gcc-cross/riscv64-linux-gnu/12/../../../../riscv64-linux-gnu/lib/libc.a(mbsrtowcs_l.o)
 *fill*         0x0000000000053afe        0x2 
 .rodata.str1.8
                0x0000000000053b00      0x15e /usr/lib/gcc-cross/riscv64-linux-gnu/12/../../../../riscv64-linux-gnu/lib/libc.a(sysconf.o)
 *fill*         0x0000000000053c5e        0x2 
 .rodata        0x0000000000053c60      0x2a4 /usr/lib/gcc-cross/riscv64-linux-gnu/12/../../../../riscv64-linux-gnu/lib/libc.a(sysconf.o)
 *fill*         0x0000000000053f04        0x4 
 .rodata.cst8   0x0000000000053f08       0x18 /usr/lib/gcc-cross/riscv64-linux-gnu/12/../../../../riscv64-linux-gnu/lib/libc.a(sysconf.o)
 .rodata.str1.8
                0x0000000000053f20        0x1 /usr/lib/gcc-cross/riscv64-linux-gnu/12/../../../../riscv64-linux-gnu/lib/libc.a(fstat64.o)
 .rodata.str1.8
                0x0000000000053f20       0x71 /usr/lib/gcc-cross/riscv64-linux-gnu/12/../../../../riscv64-linux-gnu/lib/libc.a(getcwd.o)
                                         0x79 (size before relaxing)
 *fill*         0x0000000000053f91        0x7 
 .rodata.str1.8
                0x0000000000053f98       0x56 /usr/lib/gcc-cross/riscv64-linux-gnu/12/../../../../riscv64-linux-gnu/lib/libc.a(getpagesize.o)
 *fill*         0x0000000000053fee        0x2 
 .rodata.str1.8
                0x0000000000053ff0       0x92 /usr/lib/gcc-cross/riscv64-linux-gnu/12/../../../../riscv64-linux-gnu/lib/libc.a(getsysstats.o)
 .rodata.str1.8
                0x0000000000054082        0x1 /usr/lib/gcc-cross/riscv64-linux-gnu/12/../../../../riscv64-linux-gnu/lib/libc.a(init-misc.o)
 *fill*         0x0000000000054082        0x6 
 .rodata.str1.8
                0x0000000000054088      0x100 /usr/lib/gcc-cross/riscv64-linux-gnu/12/../../../../riscv64-linux-gnu/lib/libc.a(malloc-hugepages.o)
 .rodata.str1.8
                0x0000000000054188       0x18 /usr/lib/gcc-cross/riscv64-linux-gnu/12/../../../../riscv64-linux-gnu/lib/libc.a(stack_chk_fail.o)
 .rodata.str1.8
                0x00000000000541a0       0x18 /usr/lib/gcc-cross/riscv64-linux-gnu/12/../../../../riscv64-linux-gnu/lib/libc.a(fortify_fail.o)
 .rodata.str1.8
                0x00000000000541b8      0x1f5 /usr/lib/gcc-cross/riscv64-linux-gnu/12/../../../../riscv64-linux-gnu/lib/libc.a(dl-tls.o)
 *fill*         0x00000000000543ad        0x3 
 .rodata.cst4   0x00000000000543b0        0x4 /usr/lib/gcc-cross/riscv64-linux-gnu/12/../../../../riscv64-linux-gnu/lib/libc.a(dl-tls_init_tp.o)
                0x00000000000543b0                __rseq_flags
 *fill*         0x00000000000543b4        0x4 
 .rodata.str1.8
                0x00000000000543b8       0xb8 /usr/lib/gcc-cross/riscv64-linux-gnu/12/../../../../riscv64-linux-gnu/lib/libc.a(dl-tunables.o)
                                         0xbc (size before relaxing)
 .rodata.str1.8
                0x0000000000054470       0x6e /usr/lib/gcc-cross/riscv64-linux-gnu/12/../../../../riscv64-linux-gnu/lib/libc.a(dl-error.o)
                                         0x7e (size before relaxing)
 *fill*         0x00000000000544de        0x2 
 .rodata        0x00000000000544e0      0x1f3 /usr/lib/gcc-cross/riscv64-linux-gnu/12/../../../../riscv64-linux-gnu/lib/libc.a(dl-support.o)
 *fill*         0x00000000000546d3        0x5 
 .rodata.str1.8
                0x00000000000546d8      0x1e3 /usr/lib/gcc-cross/riscv64-linux-gnu/12/../../../../riscv64-linux-gnu/lib/libc.a(dl-support.o)
                                        0x1eb (size before relaxing)
 *fill*         0x00000000000548bb        0x5 
 .rodata.str1.8
                0x00000000000548c0       0x1b /usr/lib/gcc-cross/riscv64-linux-gnu/12/../../../../riscv64-linux-gnu/lib/libc.a(dl-sysdep.o)
 .rodata.str1.8
                0x00000000000548db        0x9 /usr/lib/gcc-cross/riscv64-linux-gnu/12/../../../../riscv64-linux-gnu/lib/libc.a(gconv_open.o)
 *fill*         0x00000000000548db        0x5 
 .rodata.str1.8
                0x00000000000548e0       0x50 /usr/lib/gcc-cross/riscv64-linux-gnu/12/../../../../riscv64-linux-gnu/lib/libc.a(gconv.o)
 .rodata.str1.8
                0x0000000000054930       0x3d /usr/lib/gcc-cross/riscv64-linux-gnu/12/../../../../riscv64-linux-gnu/lib/libc.a(gconv_db.o)
 *fill*         0x000000000005496d        0x3 
 .rodata.str1.8
                0x0000000000054970      0x207 /usr/lib/gcc-cross/riscv64-linux-gnu/12/../../../../riscv64-linux-gnu/lib/libc.a(gconv_conf.o)
                                        0x234 (size before relaxing)
 *fill*         0x0000000000054b77        0x1 
 .rodata        0x0000000000054b78      0x3f7 /usr/lib/gcc-cross/riscv64-linux-gnu/12/../../../../riscv64-linux-gnu/lib/libc.a(gconv_conf.o)
 *fill*         0x0000000000054f6f        0x1 
 .rodata.str1.8
                0x0000000000054f70       0x52 /usr/lib/gcc-cross/riscv64-linux-gnu/12/../../../../riscv64-linux-gnu/lib/libc.a(gconv_builtin.o)
                                        0x147 (size before relaxing)
 *fill*         0x0000000000054fc2        0x6 
 .rodata.str1.8
                0x0000000000054fc8      0x500 /usr/lib/gcc-cross/riscv64-linux-gnu/12/../../../../riscv64-linux-gnu/lib/libc.a(gconv_simple.o)
 .rodata.str1.8
                0x00000000000554c8       0x45 /usr/lib/gcc-cross/riscv64-linux-gnu/12/../../../../riscv64-linux-gnu/lib/libc.a(gconv_cache.o)
                                         0x51 (size before relaxing)
 *fill*         0x000000000005550d        0x3 
 .rodata.str1.8
                0x0000000000055510       0x93 /usr/lib/gcc-cross/riscv64-linux-gnu/12/../../../../riscv64-linux-gnu/lib/libc.a(gconv_dl.o)
 *fill*         0x00000000000555a3        0x5 
 .rodata.str1.8
                0x00000000000555a8       0x30 /usr/lib/gcc-cross/riscv64-linux-gnu/12/../../../../riscv64-linux-gnu/lib/libc.a(gconv_charset.o)
 .rodata.cst8   0x00000000000555d8        0x8 /usr/lib/gcc-cross/riscv64-linux-gnu/12/../../../../riscv64-linux-gnu/lib/libc.a(gconv_charset.o)
 .rodata.str1.8
                0x00000000000555d8       0x16 /usr/lib/gcc-cross/riscv64-linux-gnu/12/../../../../riscv64-linux-gnu/lib/libc.a(setlocale.o)
                0x00000000000555e0                _nl_category_name_sizes
 *fill*         0x00000000000555ee        0x2 
 .rodata        0x00000000000555f0       0x99 /usr/lib/gcc-cross/riscv64-linux-gnu/12/../../../../riscv64-linux-gnu/lib/libc.a(setlocale.o)
                0x00000000000555f0                _nl_category_name_idxs
                0x0000000000055600                _nl_category_names
 *fill*         0x0000000000055689        0x7 
 .rodata.str1.8
                0x0000000000055690       0x60 /usr/lib/gcc-cross/riscv64-linux-gnu/12/../../../../riscv64-linux-gnu/lib/libc.a(findlocale.o)
                                         0x70 (size before relaxing)
                0x00000000000556e0                _nl_default_locale_path
 .rodata.cst8   0x00000000000556f0        0x8 /usr/lib/gcc-cross/riscv64-linux-gnu/12/../../../../riscv64-linux-gnu/lib/libc.a(findlocale.o)
 .rodata        0x00000000000556f0       0x34 /usr/lib/gcc-cross/riscv64-linux-gnu/12/../../../../riscv64-linux-gnu/lib/libc.a(findlocale.o)
 *fill*         0x0000000000055724        0x4 
 .rodata.str1.8
                0x0000000000055728       0x47 /usr/lib/gcc-cross/riscv64-linux-gnu/12/../../../../riscv64-linux-gnu/lib/libc.a(loadlocale.o)
 *fill*         0x000000000005576f        0x1 
 .rodata        0x0000000000055770      0x65c /usr/lib/gcc-cross/riscv64-linux-gnu/12/../../../../riscv64-linux-gnu/lib/libc.a(loadlocale.o)
 *fill*         0x0000000000055dcc        0x4 
 .rodata.str1.8
                0x0000000000055dd0       0xa7 /usr/lib/gcc-cross/riscv64-linux-gnu/12/../../../../riscv64-linux-gnu/lib/libc.a(loadarchive.o)
 *fill*         0x0000000000055e77        0x1 
 .rodata.str1.8
                0x0000000000055e78       0x3a /usr/lib/gcc-cross/riscv64-linux-gnu/12/../../../../riscv64-linux-gnu/lib/libc.a(C-ctype.o)
                                         0x4a (size before relaxing)
 *fill*         0x0000000000055eb2        0x6 
 .rodata.str4.8
                0x0000000000055eb8       0x58 /usr/lib/gcc-cross/riscv64-linux-gnu/12/../../../../riscv64-linux-gnu/lib/libc.a(C-ctype.o)
 .rodata        0x0000000000055f10     0xdc5c /usr/lib/gcc-cross/riscv64-linux-gnu/12/../../../../riscv64-linux-gnu/lib/libc.a(C-ctype.o)
                0x0000000000055f78                _nl_C_LC_CTYPE_width
                0x0000000000055fd8                _nl_C_LC_CTYPE_map_tolower
                0x0000000000056080                _nl_C_LC_CTYPE_map_toupper
                0x0000000000056128                _nl_C_LC_CTYPE_class_alnum
                0x0000000000056178                _nl_C_LC_CTYPE_class_punct
                0x00000000000561c8                _nl_C_LC_CTYPE_class_cntrl
                0x0000000000056218                _nl_C_LC_CTYPE_class_blank
                0x0000000000056260                _nl_C_LC_CTYPE_class_graph
                0x00000000000562b0                _nl_C_LC_CTYPE_class_print
                0x0000000000056300                _nl_C_LC_CTYPE_class_space
                0x0000000000056348                _nl_C_LC_CTYPE_class_xdigit
                0x0000000000056398                _nl_C_LC_CTYPE_class_digit
                0x00000000000563e0                _nl_C_LC_CTYPE_class_alpha
                0x0000000000056428                _nl_C_LC_CTYPE_class_lower
                0x0000000000056470                _nl_C_LC_CTYPE_class_upper
                0x00000000000564b8                _nl_C_LC_CTYPE_tolower
                0x0000000000056ab8                _nl_C_LC_CTYPE_toupper
                0x00000000000570b8                _nl_C_LC_CTYPE_class32
                0x00000000000574b8                _nl_C_LC_CTYPE_class
 *fill*         0x0000000000063b6c        0x4 
 .rodata.str1.8
                0x0000000000063b70        0x5 /usr/lib/gcc-cross/riscv64-linux-gnu/12/../../../../riscv64-linux-gnu/lib/libc.a(SYS_libc.o)
                0x0000000000063b70                _libc_intl_domainname
 *fill*         0x0000000000063b75        0x3 
 .rodata.str1.8
                0x0000000000063b78       0x12 /usr/lib/gcc-cross/riscv64-linux-gnu/12/../../../../riscv64-linux-gnu/lib/libc.a(C_name.o)
                                         0x1a (size before relaxing)
                0x0000000000063b78                _nl_C_codeset
                0x0000000000063b88                _nl_C_name
 *fill*         0x0000000000063b8a        0x6 
 .rodata.cst8   0x0000000000063b90        0x8 /usr/lib/gcc-cross/riscv64-linux-gnu/12/../../../../riscv64-linux-gnu/lib/libc.a(strtol_l.o)
 .rodata        0x0000000000063b98      0x13b /usr/lib/gcc-cross/riscv64-linux-gnu/12/../../../../riscv64-linux-gnu/lib/libc.a(strtol_l.o)
                0x0000000000063b98                __strtol_ul_max_tab
                0x0000000000063cb0                __strtol_ul_rem_tab
 *fill*         0x0000000000063cd3        0x5 
 .rodata.str1.8
                0x0000000000063cd8      0x107 /usr/lib/gcc-cross/riscv64-linux-gnu/12/../../../../riscv64-linux-gnu/lib/libc.a(vfprintf-internal.o)
                                        0x10f (size before relaxing)
 *fill*         0x0000000000063ddf        0x1 
 .rodata        0x0000000000063de0       0x7b /usr/lib/gcc-cross/riscv64-linux-gnu/12/../../../../riscv64-linux-gnu/lib/libc.a(vfprintf-internal.o)
 .rodata.str1.8
                0x0000000000063e5b       0xf7 /usr/lib/gcc-cross/riscv64-linux-gnu/12/../../../../riscv64-linux-gnu/lib/libc.a(vfwprintf-internal.o)
 *fill*         0x0000000000063e5b        0x5 
 .rodata.str4.8
                0x0000000000063e60       0x34 /usr/lib/gcc-cross/riscv64-linux-gnu/12/../../../../riscv64-linux-gnu/lib/libc.a(vfwprintf-internal.o)
                                         0x3c (size before relaxing)
 *fill*         0x0000000000063e94        0x4 
 .rodata        0x0000000000063e98       0x7b /usr/lib/gcc-cross/riscv64-linux-gnu/12/../../../../riscv64-linux-gnu/lib/libc.a(vfwprintf-internal.o)
 *fill*         0x0000000000063f13        0x5 
 .rodata.str1.8
                0x0000000000063f18      0xde7 /usr/lib/gcc-cross/riscv64-linux-gnu/12/../../../../riscv64-linux-gnu/lib/libc.a(errlist.o)
 *fill*         0x0000000000064cff        0x1 
 .rodata        0x0000000000064d00      0x564 /usr/lib/gcc-cross/riscv64-linux-gnu/12/../../../../riscv64-linux-gnu/lib/libc.a(errlist.o)
 .rodata        0x0000000000065264      0x244 /usr/lib/gcc-cross/riscv64-linux-gnu/12/../../../../riscv64-linux-gnu/lib/libc.a(printf-parsemb.o)
 .rodata        0x00000000000654a8      0x244 /usr/lib/gcc-cross/riscv64-linux-gnu/12/../../../../riscv64-linux-gnu/lib/libc.a(printf-parsewc.o)
 *fill*         0x00000000000656ec        0x4 
 .rodata.str1.8
                0x00000000000656f0       0x29 /usr/lib/gcc-cross/riscv64-linux-gnu/12/../../../../riscv64-linux-gnu/lib/libc.a(iopadn.o)
 *fill*         0x0000000000065719        0x7 
 .rodata        0x0000000000065720       0x80 /usr/lib/gcc-cross/riscv64-linux-gnu/12/../../../../riscv64-linux-gnu/lib/libc.a(iowpadn.o)
 .rodata.str1.8
                0x00000000000657a0       0x37 /usr/lib/gcc-cross/riscv64-linux-gnu/12/../../../../riscv64-linux-gnu/lib/libc.a(futex-internal.o)
 .rodata.cst8   0x00000000000657a0        0x8 /usr/lib/gcc-cross/riscv64-linux-gnu/12/../../../../riscv64-linux-gnu/lib/libc.a(futex-internal.o)
 .rodata.str1.8
                0x00000000000657a8      0x156 /usr/lib/gcc-cross/riscv64-linux-gnu/12/../../../../riscv64-linux-gnu/lib/libc.a(pthread_mutex_lock.o)
                                        0x18e (size before relaxing)
 *fill*         0x00000000000658fe        0x2 
 .rodata.str1.8
                0x0000000000065900       0x5f /usr/lib/gcc-cross/riscv64-linux-gnu/12/../../../../riscv64-linux-gnu/lib/libc.a(pthread_mutex_unlock.o)
                                         0x97 (size before relaxing)
 .rodata.str1.8
                0x000000000006595f       0x37 /usr/lib/gcc-cross/riscv64-linux-gnu/12/../../../../riscv64-linux-gnu/lib/libc.a(pthread_once.o)
 *fill*         0x000000000006595f        0x1 
 .rodata.str1.8
                0x0000000000065960       0xd6 /usr/lib/gcc-cross/riscv64-linux-gnu/12/../../../../riscv64-linux-gnu/lib/libc.a(tpp.o)
 *fill*         0x0000000000065a36        0x2 
 .rodata.str1.8
                0x0000000000065a38       0x15 /usr/lib/gcc-cross/riscv64-linux-gnu/12/../../../../riscv64-linux-gnu/lib/libc.a(_strerror.o)
 .rodata.cst8   0x0000000000065a4d       0x10 /usr/lib/gcc-cross/riscv64-linux-gnu/12/../../../../riscv64-linux-gnu/lib/libc.a(strnlen.o)
 .rodata.cst8   0x0000000000065a4d       0x10 /usr/lib/gcc-cross/riscv64-linux-gnu/12/../../../../riscv64-linux-gnu/lib/libc.a(memchr.o)
 *fill*         0x0000000000065a4d        0x3 
 .rodata.str1.8
                0x0000000000065a50       0x1a /usr/lib/gcc-cross/riscv64-linux-gnu/12/../../../../riscv64-linux-gnu/lib/libc.a(wcrtomb.o)
                                         0xba (size before relaxing)
 *fill*         0x0000000000065a6a        0x6 
 .rodata.str1.8
                0x0000000000065a70       0x64 /usr/lib/gcc-cross/riscv64-linux-gnu/12/../../../../riscv64-linux-gnu/lib/libc.a(wcsrtombs.o)
                                        0x124 (size before relaxing)
 *fill*         0x0000000000065ad4        0x4 
 .rodata.str1.8
                0x0000000000065ad8       0x10 /usr/lib/gcc-cross/riscv64-linux-gnu/12/../../../../riscv64-linux-gnu/lib/libc.a(readonly-area.o)
                                         0x18 (size before relaxing)
 .rodata.str1.8
                0x0000000000065ae8       0x86 /usr/lib/gcc-cross/riscv64-linux-gnu/12/../../../../riscv64-linux-gnu/lib/libc.a(dl-exception.o)
                                         0x8e (size before relaxing)
 *fill*         0x0000000000065b6e        0x2 
 .rodata.str1.8
                0x0000000000065b70      0x85f /usr/lib/gcc-cross/riscv64-linux-gnu/12/../../../../riscv64-linux-gnu/lib/libc.a(dl-load.o)
                                        0x947 (size before relaxing)
 .rodata.cst4   0x00000000000663cf        0x4 /usr/lib/gcc-cross/riscv64-linux-gnu/12/../../../../riscv64-linux-gnu/lib/libc.a(dl-load.o)
 *fill*         0x00000000000663cf        0x1 
 .rodata        0x00000000000663d0       0x88 /usr/lib/gcc-cross/riscv64-linux-gnu/12/../../../../riscv64-linux-gnu/lib/libc.a(dl-load.o)
 .rodata.str1.8
                0x0000000000066458      0x33c /usr/lib/gcc-cross/riscv64-linux-gnu/12/../../../../riscv64-linux-gnu/lib/libc.a(dl-lookup.o)
                                        0x35c (size before relaxing)
 *fill*         0x0000000000066794        0x4 
 .rodata.str1.8
                0x0000000000066798       0x42 /usr/lib/gcc-cross/riscv64-linux-gnu/12/../../../../riscv64-linux-gnu/lib/libc.a(dl-minimal-malloc.o)
 *fill*         0x00000000000667da        0x6 
 .rodata        0x00000000000667e0       0x78 /usr/lib/gcc-cross/riscv64-linux-gnu/12/../../../../riscv64-linux-gnu/lib/libc.a(dl-misc.o)
 .rodata.str1.8
                0x0000000000066858       0x67 /usr/lib/gcc-cross/riscv64-linux-gnu/12/../../../../riscv64-linux-gnu/lib/libc.a(dl-origin.o)
 *fill*         0x00000000000668bf        0x1 
 .rodata.str1.8
                0x00000000000668c0       0x73 /usr/lib/gcc-cross/riscv64-linux-gnu/12/../../../../riscv64-linux-gnu/lib/libc.a(dl-printf.o)
 *fill*         0x0000000000066933        0x5 
 .rodata.str1.8
                0x0000000000066938       0xfb /usr/lib/gcc-cross/riscv64-linux-gnu/12/../../../../riscv64-linux-gnu/lib/libc.a(dl-profile.o)
 *fill*         0x0000000000066a33        0x5 
 .rodata.str1.8
                0x0000000000066a38      0x18b /usr/lib/gcc-cross/riscv64-linux-gnu/12/../../../../riscv64-linux-gnu/lib/libc.a(dl-reloc.o)
                                        0x1bb (size before relaxing)
 *fill*         0x0000000000066bc3        0x5 
 .rodata        0x0000000000066bc8      0x9a4 /usr/lib/gcc-cross/riscv64-linux-gnu/12/../../../../riscv64-linux-gnu/lib/libc.a(dl-reloc.o)
 *fill*         0x000000000006756c        0x4 
 .rodata.str1.8
                0x0000000000067570       0x4f /usr/lib/gcc-cross/riscv64-linux-gnu/12/../../../../riscv64-linux-gnu/lib/libc.a(dl-setup_hash.o)
 .rodata.str1.8
                0x00000000000675bf       0x37 /usr/lib/gcc-cross/riscv64-linux-gnu/12/../../../../riscv64-linux-gnu/lib/libc.a(dl-thread_gscope_wait.o)
 *fill*         0x00000000000675bf        0x1 
 .rodata.str1.8
                0x00000000000675c0       0x8e /usr/lib/gcc-cross/riscv64-linux-gnu/12/../../../../riscv64-linux-gnu/lib/libc.a(dl-cache.o)
                                         0xa6 (size before relaxing)
 *fill*         0x000000000006764e        0x2 
 .rodata.str1.8
                0x0000000000067650        0xe /usr/lib/gcc-cross/riscv64-linux-gnu/12/../../../../riscv64-linux-gnu/lib/libc.a(dl-libc.o)
 *fill*         0x000000000006765e        0x2 
 .rodata.cst8   0x0000000000067660        0x8 /usr/lib/gcc-cross/riscv64-linux-gnu/12/../../../../riscv64-linux-gnu/lib/libc.a(dl-libc.o)
 .rodata.str1.8
                0x0000000000067668        0xe /usr/lib/gcc-cross/riscv64-linux-gnu/12/../../../../riscv64-linux-gnu/lib/libc.a(C-messages.o)
                                         0x11 (size before relaxing)
 *fill*         0x0000000000067676        0x2 
 .rodata.str1.8
                0x0000000000067678        0xa /usr/lib/gcc-cross/riscv64-linux-gnu/12/../../../../riscv64-linux-gnu/lib/libc.a(C-monetary.o)
                                         0x12 (size before relaxing)
 *fill*         0x0000000000067682        0x6 
 .rodata        0x0000000000067688        0x8 /usr/lib/gcc-cross/riscv64-linux-gnu/12/../../../../riscv64-linux-gnu/lib/libc.a(C-monetary.o)
 .rodata.str1.8
                0x0000000000067690        0x9 /usr/lib/gcc-cross/riscv64-linux-gnu/12/../../../../riscv64-linux-gnu/lib/libc.a(C-numeric.o)
 .rodata.str1.8
                0x0000000000067690      0x1f0 /usr/lib/gcc-cross/riscv64-linux-gnu/12/../../../../riscv64-linux-gnu/lib/libc.a(C-time.o)
                                        0x1f8 (size before relaxing)
 .rodata.str4.8
                0x0000000000067880      0x4e0 /usr/lib/gcc-cross/riscv64-linux-gnu/12/../../../../riscv64-linux-gnu/lib/libc.a(C-time.o)
                                        0x4e8 (size before relaxing)
 .rodata.str1.8
                0x0000000000067d60        0xf /usr/lib/gcc-cross/riscv64-linux-gnu/12/../../../../riscv64-linux-gnu/lib/libc.a(C-name.o)
                                         0x11 (size before relaxing)
 *fill*         0x0000000000067d6f        0x1 
 .rodata.str1.8
                0x0000000000067d70       0x2c /usr/lib/gcc-cross/riscv64-linux-gnu/12/../../../../riscv64-linux-gnu/lib/libc.a(C-address.o)
                                         0x31 (size before relaxing)
 *fill*         0x0000000000067d9c        0x4 
 .rodata.str1.8
                0x0000000000067da0        0xa /usr/lib/gcc-cross/riscv64-linux-gnu/12/../../../../riscv64-linux-gnu/lib/libc.a(C-telephone.o)
                                         0x11 (size before relaxing)
 .rodata.str1.8
                0x0000000000067daa        0x2 /usr/lib/gcc-cross/riscv64-linux-gnu/12/../../../../riscv64-linux-gnu/lib/libc.a(C-measurement.o)
 *fill*         0x0000000000067daa        0x6 
 .rodata.str1.8
                0x0000000000067db0       0xeb /usr/lib/gcc-cross/riscv64-linux-gnu/12/../../../../riscv64-linux-gnu/lib/libc.a(C-identification.o)
                                         0xf3 (size before relaxing)
 *fill*         0x0000000000067e9b        0x5 
 .rodata        0x0000000000067ea0       0xa1 /usr/lib/gcc-cross/riscv64-linux-gnu/12/../../../../riscv64-linux-gnu/lib/libc.a(C-identification.o)
 *fill*         0x0000000000067f41        0x7 
 .rodata        0x0000000000067f48      0x520 /usr/lib/gcc-cross/riscv64-linux-gnu/12/../../../../riscv64-linux-gnu/lib/libc.a(C-collate.o)
 .rodata.str1.8
                0x0000000000068468       0x25 /usr/lib/gcc-cross/riscv64-linux-gnu/12/../../../../riscv64-linux-gnu/lib/libc.a(itoa-digits.o)
                0x0000000000068468                _itoa_lower_digits
 *fill*         0x000000000006848d        0x3 
 .rodata.str1.8
                0x0000000000068490       0x25 /usr/lib/gcc-cross/riscv64-linux-gnu/12/../../../../riscv64-linux-gnu/lib/libc.a(itoa-udigits.o)
                0x0000000000068490                _itoa_upper_digits
 *fill*         0x00000000000684b5        0x3 
 .rodata        0x00000000000684b8      0x120 /usr/lib/gcc-cross/riscv64-linux-gnu/12/../../../../riscv64-linux-gnu/lib/libc.a(itowa-digits.o)
                0x00000000000684b8                _itowa_upper_digits
                0x0000000000068548                _itowa_lower_digits
 .rodata.str1.8
                0x00000000000685d8       0x1c /usr/lib/gcc-cross/riscv64-linux-gnu/12/../../../../riscv64-linux-gnu/lib/libc.a(printf_fp.o)
                                         0x2c (size before relaxing)
 *fill*         0x00000000000685f4        0x4 
 .rodata.str4.8
                0x00000000000685f8       0x5c /usr/lib/gcc-cross/riscv64-linux-gnu/12/../../../../riscv64-linux-gnu/lib/libc.a(printf_fp.o)
 *fill*         0x0000000000068654        0xc 
 .rodata.cst16  0x0000000000068660       0x10 /usr/lib/gcc-cross/riscv64-linux-gnu/12/../../../../riscv64-linux-gnu/lib/libc.a(printf_fp.o)
 .rodata.cst8   0x0000000000068670        0x8 /usr/lib/gcc-cross/riscv64-linux-gnu/12/../../../../riscv64-linux-gnu/lib/libc.a(printf_fp.o)
 .rodata.str4.8
                0x0000000000068678       0x40 /usr/lib/gcc-cross/riscv64-linux-gnu/12/../../../../riscv64-linux-gnu/lib/libc.a(printf_fphex.o)
 .rodata.str1.8
                0x0000000000068678       0x57 /usr/lib/gcc-cross/riscv64-linux-gnu/12/../../../../riscv64-linux-gnu/lib/libc.a(printf_fphex.o)
                                         0x77 (size before relaxing)
 .rodata.cst16  0x00000000000686cf       0x10 /usr/lib/gcc-cross/riscv64-linux-gnu/12/../../../../riscv64-linux-gnu/lib/libc.a(printf_fphex.o)
 .rodata.cst8   0x00000000000686cf        0x8 /usr/lib/gcc-cross/riscv64-linux-gnu/12/../../../../riscv64-linux-gnu/lib/libc.a(printf_fphex.o)
 *fill*         0x00000000000686cf        0x1 
 .rodata.str1.8
                0x00000000000686d0      0x289 /usr/lib/gcc-cross/riscv64-linux-gnu/12/../../../../riscv64-linux-gnu/lib/libc.a(dl-close.o)
                                        0x2a1 (size before relaxing)
 *fill*         0x0000000000068959        0x7 
 .rodata.str1.8
                0x0000000000068960      0x13d /usr/lib/gcc-cross/riscv64-linux-gnu/12/../../../../riscv64-linux-gnu/lib/libc.a(dl-find_object.o)
 *fill*         0x0000000000068a9d        0x3 
 .rodata.str1.8
                0x0000000000068aa0      0x3a0 /usr/lib/gcc-cross/riscv64-linux-gnu/12/../../../../riscv64-linux-gnu/lib/libc.a(dl-open.o)
                                        0x408 (size before relaxing)
 .rodata.str1.8
                0x0000000000068e40       0x6a /usr/lib/gcc-cross/riscv64-linux-gnu/12/../../../../riscv64-linux-gnu/lib/libc.a(dl-runtime.o)
 *fill*         0x0000000000068eaa        0x6 
 .rodata.str1.8
                0x0000000000068eb0       0x4a /usr/lib/gcc-cross/riscv64-linux-gnu/12/../../../../riscv64-linux-gnu/lib/libc.a(dl-sort-maps.o)
 *fill*         0x0000000000068efa        0x6 
 .rodata.str1.8
                0x0000000000068f00      0x1c7 /usr/lib/gcc-cross/riscv64-linux-gnu/12/../../../../riscv64-linux-gnu/lib/libc.a(dl-version.o)
                                        0x1d7 (size before relaxing)
 *fill*         0x00000000000690c7        0x1 
 .rodata.str1.8
                0x00000000000690c8       0x4b /usr/lib/gcc-cross/riscv64-linux-gnu/12/../../../../riscv64-linux-gnu/lib/libc.a(rtld_static_init.o)
                                         0x5b (size before relaxing)
 *fill*         0x0000000000069113        0x5 
 .rodata.str1.8
                0x0000000000069118       0x35 /usr/lib/gcc-cross/riscv64-linux-gnu/12/../../../../riscv64-linux-gnu/lib/libc.a(rshift.o)
 *fill*         0x000000000006914d        0x3 
 .rodata        0x0000000000069150     0x3750 /usr/lib/gcc-cross/riscv64-linux-gnu/12/../../../../riscv64-linux-gnu/lib/libc.a(fpioconst.o)
                0x0000000000069150                _fpioconst_pow10
                0x00000000000692b8                __tens
 .rodata        0x000000000006c8a0      0x100 /usr/lib/gcc-cross/riscv64-linux-gnu/12/../../../../riscv64-linux-gnu/lib/libc.a(mp_clz_tab.o)
                0x000000000006c8a0                __clz_tab
 .rodata.str1.8
                0x000000000006c9a0       0x13 /usr/lib/gcc-cross/riscv64-linux-gnu/12/../../../../riscv64-linux-gnu/lib/libc.a(dlerror.o)
                                         0x33 (size before relaxing)
 *fill*         0x000000000006c9b3        0x5 
 .rodata.str1.8
                0x000000000006c9b8       0x1b /usr/lib/gcc-cross/riscv64-linux-gnu/12/../../../../riscv64-linux-gnu/lib/libc.a(dlinfo.o)
 *fill*         0x000000000006c9d3        0x1 
 .rodata        0x000000000006c9d4       0x2c /usr/lib/gcc-cross/riscv64-linux-gnu/12/../../../../riscv64-linux-gnu/lib/libc.a(dlinfo.o)
 .rodata.str1.8
                0x000000000006ca00       0x12 /usr/lib/gcc-cross/riscv64-linux-gnu/12/../../../../riscv64-linux-gnu/lib/libc.a(dlmopen.o)
                                         0x1a (size before relaxing)
 *fill*         0x000000000006ca12        0x6 
 .rodata.str1.8
                0x000000000006ca18       0x17 /usr/lib/gcc-cross/riscv64-linux-gnu/12/../../../../riscv64-linux-gnu/lib/libc.a(dlopen.o)
                                         0x1f (size before relaxing)
 *fill*         0x000000000006ca2f        0x1 
 .rodata.str1.8
                0x000000000006ca30       0x51 /usr/lib/gcc-cross/riscv64-linux-gnu/12/../../../../riscv64-linux-gnu/lib/libc.a(dl-call-libc-early-init.o)
                                         0x71 (size before relaxing)
 *fill*         0x000000000006ca81        0x7 
 .rodata.str1.8
                0x000000000006ca88      0x1e4 /usr/lib/gcc-cross/riscv64-linux-gnu/12/../../../../riscv64-linux-gnu/lib/libc.a(dl-deps.o)
                                        0x21c (size before relaxing)
 *fill*         0x000000000006cc6c        0x4 
 .rodata.str1.8
                0x000000000006cc70       0x8a /usr/lib/gcc-cross/riscv64-linux-gnu/12/../../../../riscv64-linux-gnu/lib/libc.a(dl-init.o)
                                         0x9a (size before relaxing)
 *fill*         0x000000000006ccfa        0x6 
 .rodata.str1.8
                0x000000000006cd00       0x2e /usr/lib/gcc-cross/riscv64-linux-gnu/12/../../../../riscv64-linux-gnu/lib/libc.a(dl-sym.o)
 *fill*         0x000000000006cd2e        0x2 
 .rodata        0x000000000006cd30      0x2c4 /usr/lib/gcc-cross/riscv64-linux-gnu/12/libgcc_eh.a(unwind-dw2.o)
 *fill*         0x000000000006cff4        0x4 
 .rodata        0x000000000006cff8       0x40 /usr/lib/gcc-cross/riscv64-linux-gnu/12/libgcc_eh.a(unwind-dw2-fde-dip.o)
 .rodata        0x000000000006d038       0x34 /usr/lib/gcc-cross/riscv64-linux-gnu/12/libgcc_eh.a(unwind-c.o)

.rodata1
 *(.rodata1)

.sdata2
 *(.sdata2 .sdata2.* .gnu.linkonce.s2.*)

.sbss2
 *(.sbss2 .sbss2.* .gnu.linkonce.sb2.*)

.eh_frame_hdr
 *(.eh_frame_hdr)
 *(.eh_frame_entry .eh_frame_entry.*)

.eh_frame       0x000000000006d070     0x305c
 *(.eh_frame)
 .eh_frame      0x000000000006d070       0x28 /usr/lib/gcc-cross/riscv64-linux-gnu/12/../../../../riscv64-linux-gnu/lib/crt1.o
 .eh_frame      0x000000000006d098        0x0 /usr/lib/gcc-cross/riscv64-linux-gnu/12/crtbeginT.o
 .eh_frame      0x000000000006d098       0x70 /usr/lib/gcc-cross/riscv64-linux-gnu/12/../../../../riscv64-linux-gnu/lib/libc.a(libc-start.o)
                                         0x88 (size before relaxing)
 .eh_frame      0x000000000006d108       0x40 /usr/lib/gcc-cross/riscv64-linux-gnu/12/../../../../riscv64-linux-gnu/lib/libc.a(setjmp.o)
                                         0x50 (size before relaxing)
 .eh_frame      0x000000000006d148       0x28 /usr/lib/gcc-cross/riscv64-linux-gnu/12/../../../../riscv64-linux-gnu/lib/libc.a(raise.o)
                                         0x38 (size before relaxing)
 .eh_frame      0x000000000006d170       0xc0 /usr/lib/gcc-cross/riscv64-linux-gnu/12/../../../../riscv64-linux-gnu/lib/libc.a(msort.o)
                                         0xd8 (size before relaxing)
 .eh_frame      0x000000000006d230       0x58 /usr/lib/gcc-cross/riscv64-linux-gnu/12/../../../../riscv64-linux-gnu/lib/libc.a(iofclose.o)
 .eh_frame      0x000000000006d288       0x40 /usr/lib/gcc-cross/riscv64-linux-gnu/12/../../../../riscv64-linux-gnu/lib/libc.a(iofflush.o)
                                         0x58 (size before relaxing)
 .eh_frame      0x000000000006d2c8       0x70 /usr/lib/gcc-cross/riscv64-linux-gnu/12/../../../../riscv64-linux-gnu/lib/libc.a(iofopen.o)
                                         0x80 (size before relaxing)
 .eh_frame      0x000000000006d338      0x288 /usr/lib/gcc-cross/riscv64-linux-gnu/12/../../../../riscv64-linux-gnu/lib/libc.a(wfileops.o)
                                        0x2b8 (size before relaxing)
 .eh_frame      0x000000000006d5c0      0x618 /usr/lib/gcc-cross/riscv64-linux-gnu/12/../../../../riscv64-linux-gnu/lib/libc.a(fileops.o)
                                        0x648 (size before relaxing)
 .eh_frame      0x000000000006dbd8      0x878 /usr/lib/gcc-cross/riscv64-linux-gnu/12/../../../../riscv64-linux-gnu/lib/libc.a(genops.o)
                                        0x888 (size before relaxing)
 .eh_frame      0x000000000006e450       0x60 /usr/lib/gcc-cross/riscv64-linux-gnu/12/../../../../riscv64-linux-gnu/lib/libc.a(pthread_kill.o)
                                         0x78 (size before relaxing)
 .eh_frame      0x000000000006e4b0       0x18 /usr/lib/gcc-cross/riscv64-linux-gnu/12/../../../../riscv64-linux-gnu/lib/libc.a(pthread_setcancelstate.o)
                                         0x28 (size before relaxing)
 .eh_frame      0x000000000006e4c8       0x18 /usr/lib/gcc-cross/riscv64-linux-gnu/12/../../../../riscv64-linux-gnu/lib/libc.a(pthread_testcancel.o)
                                         0x30 (size before relaxing)
 .eh_frame      0x000000000006e4e0       0x18 /usr/lib/gcc-cross/riscv64-linux-gnu/12/../../../../riscv64-linux-gnu/lib/libc.a(getpid.o)
                                         0x28 (size before relaxing)
 .eh_frame      0x000000000006e4f8       0x90 /usr/lib/gcc-cross/riscv64-linux-gnu/12/../../../../riscv64-linux-gnu/lib/libc.a(sysconf.o)
                                         0xa8 (size before relaxing)
 .eh_frame      0x000000000006e588       0x18 /usr/lib/gcc-cross/riscv64-linux-gnu/12/../../../../riscv64-linux-gnu/lib/libc.a(sched_yield.o)
                                         0x28 (size before relaxing)
 .eh_frame      0x000000000006e5a0       0x30 /usr/lib/gcc-cross/riscv64-linux-gnu/12/../../../../riscv64-linux-gnu/lib/libc.a(open64.o)
                                         0x40 (size before relaxing)
 .eh_frame      0x000000000006e5d0       0x40 /usr/lib/gcc-cross/riscv64-linux-gnu/12/../../../../riscv64-linux-gnu/lib/libc.a(read.o)
                                         0x50 (size before relaxing)
 .eh_frame      0x000000000006e610       0x40 /usr/lib/gcc-cross/riscv64-linux-gnu/12/../../../../riscv64-linux-gnu/lib/libc.a(write.o)
                                         0x50 (size before relaxing)
 .eh_frame      0x000000000006e650       0x18 /usr/lib/gcc-cross/riscv64-linux-gnu/12/../../../../riscv64-linux-gnu/lib/libc.a(munmap.o)
                                         0x28 (size before relaxing)
 .eh_frame      0x000000000006e668       0x18 /usr/lib/gcc-cross/riscv64-linux-gnu/12/../../../../riscv64-linux-gnu/lib/libc.a(mprotect.o)
                                         0x28 (size before relaxing)
 .eh_frame      0x000000000006e680       0x18 /usr/lib/gcc-cross/riscv64-linux-gnu/12/../../../../riscv64-linux-gnu/lib/libc.a(madvise.o)
                                         0x28 (size before relaxing)
 .eh_frame      0x000000000006e698      0x1b8 /usr/lib/gcc-cross/riscv64-linux-gnu/12/../../../../riscv64-linux-gnu/lib/libc.a(tsearch.o)
                                        0x1c8 (size before relaxing)
 .eh_frame      0x000000000006e850      0x1b8 /usr/lib/gcc-cross/riscv64-linux-gnu/12/../../../../riscv64-linux-gnu/lib/libc.a(getsysstats.o)
                                        0x1c8 (size before relaxing)
 .eh_frame      0x000000000006ea08       0x18 /usr/lib/gcc-cross/riscv64-linux-gnu/12/../../../../riscv64-linux-gnu/lib/libc.a(sysinfo.o)
                                         0x28 (size before relaxing)
 .eh_frame      0x000000000006ea20       0x28 /usr/lib/gcc-cross/riscv64-linux-gnu/12/../../../../riscv64-linux-gnu/lib/libc.a(sysdep.o)
                                         0x40 (size before relaxing)
 .eh_frame      0x000000000006ea48       0x18 /usr/lib/gcc-cross/riscv64-linux-gnu/12/../../../../riscv64-linux-gnu/lib/libc.a(__longjmp.o)
                                         0x28 (size before relaxing)
 .eh_frame      0x000000000006ea60       0x58 /usr/lib/gcc-cross/riscv64-linux-gnu/12/../../../../riscv64-linux-gnu/lib/libc.a(qsort.o)
                                         0x68 (size before relaxing)
 .eh_frame      0x000000000006eab8       0x28 /usr/lib/gcc-cross/riscv64-linux-gnu/12/../../../../riscv64-linux-gnu/lib/libc.a(fprintf.o)
                                         0x38 (size before relaxing)
 .eh_frame      0x000000000006eae0       0x38 /usr/lib/gcc-cross/riscv64-linux-gnu/12/../../../../riscv64-linux-gnu/lib/libc.a(iofputs.o)
                                         0x58 (size before relaxing)
 .eh_frame      0x000000000006eb18       0x40 /usr/lib/gcc-cross/riscv64-linux-gnu/12/../../../../riscv64-linux-gnu/lib/libc.a(iofwrite.o)
                                         0x60 (size before relaxing)
 .eh_frame      0x000000000006eb58       0x58 /usr/lib/gcc-cross/riscv64-linux-gnu/12/../../../../riscv64-linux-gnu/lib/libc.a(iogetdelim.o)
                                         0x78 (size before relaxing)
 .eh_frame      0x000000000006ebb0       0x60 /usr/lib/gcc-cross/riscv64-linux-gnu/12/../../../../riscv64-linux-gnu/lib/libc.a(iogetline.o)
                                         0x78 (size before relaxing)
 .eh_frame      0x000000000006ec10      0x430 /usr/lib/gcc-cross/riscv64-linux-gnu/12/../../../../riscv64-linux-gnu/lib/libc.a(wgenops.o)
                                        0x448 (size before relaxing)
 .eh_frame      0x000000000006f040       0x30 /usr/lib/gcc-cross/riscv64-linux-gnu/12/../../../../riscv64-linux-gnu/lib/libc.a(cancellation.o)
                                         0x40 (size before relaxing)
 .eh_frame      0x000000000006f070       0x78 /usr/lib/gcc-cross/riscv64-linux-gnu/12/../../../../riscv64-linux-gnu/lib/libc.a(futex-internal.o)
                                         0x88 (size before relaxing)
 .eh_frame      0x000000000006f0e8       0x88 /usr/lib/gcc-cross/riscv64-linux-gnu/12/../../../../riscv64-linux-gnu/lib/libc.a(pthread_once.o)
                                         0xb8 (size before relaxing)
 .eh_frame      0x000000000006f170       0x18 /usr/lib/gcc-cross/riscv64-linux-gnu/12/../../../../riscv64-linux-gnu/lib/libc.a(uname.o)
                                         0x28 (size before relaxing)
 .eh_frame      0x000000000006f188       0x18 /usr/lib/gcc-cross/riscv64-linux-gnu/12/../../../../riscv64-linux-gnu/lib/libc.a(getuid.o)
                                         0x28 (size before relaxing)
 .eh_frame      0x000000000006f1a0       0x18 /usr/lib/gcc-cross/riscv64-linux-gnu/12/../../../../riscv64-linux-gnu/lib/libc.a(geteuid.o)
                                         0x28 (size before relaxing)
 .eh_frame      0x000000000006f1b8       0x18 /usr/lib/gcc-cross/riscv64-linux-gnu/12/../../../../riscv64-linux-gnu/lib/libc.a(getgid.o)
                                         0x28 (size before relaxing)
 .eh_frame      0x000000000006f1d0       0x18 /usr/lib/gcc-cross/riscv64-linux-gnu/12/../../../../riscv64-linux-gnu/lib/libc.a(getegid.o)
                                         0x28 (size before relaxing)
 .eh_frame      0x000000000006f1e8       0x18 /usr/lib/gcc-cross/riscv64-linux-gnu/12/../../../../riscv64-linux-gnu/lib/libc.a(sched_getp.o)
                                         0x28 (size before relaxing)
 .eh_frame      0x000000000006f200       0x18 /usr/lib/gcc-cross/riscv64-linux-gnu/12/../../../../riscv64-linux-gnu/lib/libc.a(sched_sets.o)
                                         0x28 (size before relaxing)
 .eh_frame      0x000000000006f218       0x18 /usr/lib/gcc-cross/riscv64-linux-gnu/12/../../../../riscv64-linux-gnu/lib/libc.a(sched_gets.o)
                                         0x28 (size before relaxing)
 .eh_frame      0x000000000006f230       0x18 /usr/lib/gcc-cross/riscv64-linux-gnu/12/../../../../riscv64-linux-gnu/lib/libc.a(sched_primax.o)
                                         0x28 (size before relaxing)
 .eh_frame      0x000000000006f248       0x18 /usr/lib/gcc-cross/riscv64-linux-gnu/12/../../../../riscv64-linux-gnu/lib/libc.a(sched_primin.o)
                                         0x28 (size before relaxing)
 .eh_frame      0x000000000006f260      0x108 /usr/lib/gcc-cross/riscv64-linux-gnu/12/../../../../riscv64-linux-gnu/lib/libc.a(dl-lookup.o)
                                        0x118 (size before relaxing)
 .eh_frame      0x000000000006f368       0x18 /usr/lib/gcc-cross/riscv64-linux-gnu/12/../../../../riscv64-linux-gnu/lib/libc.a(dl-trampoline.o)
                                         0x28 (size before relaxing)
 .eh_frame      0x000000000006f380       0x80 /usr/lib/gcc-cross/riscv64-linux-gnu/12/../../../../riscv64-linux-gnu/lib/libc.a(dl-runtime.o)
                                         0x98 (size before relaxing)
 .eh_frame      0x000000000006f400      0x798 /usr/lib/gcc-cross/riscv64-linux-gnu/12/libgcc_eh.a(unwind-dw2.o)
                                        0x7b0 (size before relaxing)
 .eh_frame      0x000000000006fb98      0x4b0 /usr/lib/gcc-cross/riscv64-linux-gnu/12/libgcc_eh.a(unwind-dw2-fde-dip.o)
                                        0x4c8 (size before relaxing)
 .eh_frame      0x0000000000070048       0x80 /usr/lib/gcc-cross/riscv64-linux-gnu/12/libgcc_eh.a(unwind-c.o)
                                         0x98 (size before relaxing)
 .eh_frame      0x00000000000700c8        0x4 /usr/lib/gcc-cross/riscv64-linux-gnu/12/crtend.o
 *(.eh_frame.*)

.gcc_except_table
                0x00000000000700cc      0x1c0
 *(.gcc_except_table .gcc_except_table.*)
 .gcc_except_table
                0x00000000000700cc       0x45 /usr/lib/gcc-cross/riscv64-linux-gnu/12/../../../../riscv64-linux-gnu/lib/libc.a(iofclose.o)
 .gcc_except_table
                0x0000000000070111       0x38 /usr/lib/gcc-cross/riscv64-linux-gnu/12/../../../../riscv64-linux-gnu/lib/libc.a(iofflush.o)
 .gcc_except_table
                0x0000000000070149       0x2b /usr/lib/gcc-cross/riscv64-linux-gnu/12/../../../../riscv64-linux-gnu/lib/libc.a(wfileops.o)
 .gcc_except_table
                0x0000000000070174       0x45 /usr/lib/gcc-cross/riscv64-linux-gnu/12/../../../../riscv64-linux-gnu/lib/libc.a(fileops.o)
 .gcc_except_table
                0x00000000000701b9       0x38 /usr/lib/gcc-cross/riscv64-linux-gnu/12/../../../../riscv64-linux-gnu/lib/libc.a(iofputs.o)
 .gcc_except_table
                0x00000000000701f1       0x38 /usr/lib/gcc-cross/riscv64-linux-gnu/12/../../../../riscv64-linux-gnu/lib/libc.a(iofwrite.o)
 .gcc_except_table
                0x0000000000070229       0x38 /usr/lib/gcc-cross/riscv64-linux-gnu/12/../../../../riscv64-linux-gnu/lib/libc.a(iogetdelim.o)
 .gcc_except_table
                0x0000000000070261       0x2b /usr/lib/gcc-cross/riscv64-linux-gnu/12/../../../../riscv64-linux-gnu/lib/libc.a(pthread_once.o)

.gnu_extab
 *(.gnu_extab*)

.exception_ranges
 *(.exception_ranges*)
                0x0000000000071d80                . = DATA_SEGMENT_ALIGN (CONSTANT (MAXPAGESIZE), CONSTANT (COMMONPAGESIZE))

.eh_frame
 *(.eh_frame)
 *(.eh_frame.*)

.gnu_extab
 *(.gnu_extab)

.gcc_except_table
 *(.gcc_except_table .gcc_except_table.*)

.exception_ranges
 *(.exception_ranges*)

.tdata          0x0000000000071d80       0x20
                [!provide]                        PROVIDE (__tdata_start = .)
 *(.tdata .tdata.* .gnu.linkonce.td.*)
 .tdata         0x0000000000071d80        0x8 /usr/lib/gcc-cross/riscv64-linux-gnu/12/../../../../riscv64-linux-gnu/lib/libc.a(lc-ctype.o)
                0x0000000000071d80                _nl_current_LC_CTYPE
 .tdata         0x0000000000071d88        0x8 /usr/lib/gcc-cross/riscv64-linux-gnu/12/../../../../riscv64-linux-gnu/lib/libc.a(global-locale.o)
                0x0000000000071d88                __libc_tsd_LOCALE
 .tdata         0x0000000000071d90        0x8 /usr/lib/gcc-cross/riscv64-linux-gnu/12/../../../../riscv64-linux-gnu/lib/libc.a(lc-numeric.o)
                0x0000000000071d90                _nl_current_LC_NUMERIC
 .tdata         0x0000000000071d98        0x8 /usr/lib/gcc-cross/riscv64-linux-gnu/12/../../../../riscv64-linux-gnu/lib/libc.a(lc-monetary.o)
                0x0000000000071d98                _nl_current_LC_MONETARY

.tbss           0x0000000000071da0       0x48
 *(.tbss .tbss.* .gnu.linkonce.tb.*)
 .tbss          0x0000000000071da0        0x4 /usr/lib/gcc-cross/riscv64-linux-gnu/12/../../../../riscv64-linux-gnu/lib/libc.a(errno.o)
                0x0000000000071da0                errno
                0x0000000000071da0                __libc_errno
 *fill*         0x0000000000071da4        0x4 
 .tbss          0x0000000000071da8       0x11 /usr/lib/gcc-cross/riscv64-linux-gnu/12/../../../../riscv64-linux-gnu/lib/libc.a(malloc.o)
 *fill*         0x0000000000071db9        0x7 
 .tbss          0x0000000000071dc0        0x8 /usr/lib/gcc-cross/riscv64-linux-gnu/12/../../../../riscv64-linux-gnu/lib/libc.a(dl-error.o)
 .tbss          0x0000000000071dc8       0x18 /usr/lib/gcc-cross/riscv64-linux-gnu/12/../../../../riscv64-linux-gnu/lib/libc.a(ctype-info.o)
                0x0000000000071dc8                __libc_tsd_CTYPE_B
                0x0000000000071dd0                __libc_tsd_CTYPE_TOUPPER
                0x0000000000071dd8                __libc_tsd_CTYPE_TOLOWER
 .tbss          0x0000000000071de0        0x8 /usr/lib/gcc-cross/riscv64-linux-gnu/12/../../../../riscv64-linux-gnu/lib/libc.a(libc_dlerror_result.o)
                0x0000000000071de0                __libc_dlerror_result
 *(.tcommon)

.preinit_array  0x0000000000071da0        0x8
                0x0000000000071da0                PROVIDE (__preinit_array_start = .)
 *(.preinit_array)
 .preinit_array
                0x0000000000071da0        0x8 /usr/lib/gcc-cross/riscv64-linux-gnu/12/../../../../riscv64-linux-gnu/lib/crt1.o
                0x0000000000071da8                PROVIDE (__preinit_array_end = .)

.init_array     0x0000000000071da8        0x8
                0x0000000000071da8                PROVIDE (__init_array_start = .)
 *(SORT_BY_INIT_PRIORITY(.init_array.*) SORT_BY_INIT_PRIORITY(.ctors.*))
 *(.init_array EXCLUDE_FILE(*crtend?.o *crtend.o *crtbegin?.o *crtbegin.o) .ctors)
 .init_array    0x0000000000071da8        0x8 /usr/lib/gcc-cross/riscv64-linux-gnu/12/crtbeginT.o
                0x0000000000071db0                PROVIDE (__init_array_end = .)

.fini_array     0x0000000000071db0        0x8
                0x0000000000071db0                PROVIDE (__fini_array_start = .)
 *(SORT_BY_INIT_PRIORITY(.fini_array.*) SORT_BY_INIT_PRIORITY(.dtors.*))
 *(.fini_array EXCLUDE_FILE(*crtend?.o *crtend.o *crtbegin?.o *crtbegin.o) .dtors)
 .fini_array    0x0000000000071db0        0x8 /usr/lib/gcc-cross/riscv64-linux-gnu/12/crtbeginT.o
                0x0000000000071db8                PROVIDE (__fini_array_end = .)

.ctors
 *crtbegin.o(.ctors)
 *crtbegin?.o(.ctors)
 *(EXCLUDE_FILE(*crtend?.o *crtend.o) .ctors)
 *(SORT_BY_NAME(.ctors.*))
 *(.ctors)

.dtors
 *crtbegin.o(.dtors)
 *crtbegin?.o(.dtors)
 *(EXCLUDE_FILE(*crtend?.o *crtend.o) .dtors)
 *(SORT_BY_NAME(.dtors.*))
 *(.dtors)

.jcr
 *(.jcr)

.data.rel.ro    0x0000000000071db8     0x3248
 *(.data.rel.ro.local* .gnu.linkonce.d.rel.ro.local.*)
 .data.rel.ro.local
                0x0000000000071db8       0x20 /usr/lib/gcc-cross/riscv64-linux-gnu/12/../../../../riscv64-linux-gnu/lib/libc.a(plural-exp.o)
                0x0000000000071db8                __gettext_germanic_plural
 .data.rel.ro.local
                0x0000000000071dd8       0x20 /usr/lib/gcc-cross/riscv64-linux-gnu/12/../../../../riscv64-linux-gnu/lib/libc.a(wcsmbsload.o)
                0x0000000000071dd8                __wcsmbs_gconv_fcts_c
 .data.rel.ro.local
                0x0000000000071df8       0x68 /usr/lib/gcc-cross/riscv64-linux-gnu/12/../../../../riscv64-linux-gnu/lib/libc.a(loadlocale.o)
 .data.rel.ro.local
                0x0000000000071e60      0x2f0 /usr/lib/gcc-cross/riscv64-linux-gnu/12/../../../../riscv64-linux-gnu/lib/libc.a(C-ctype.o)
                0x0000000000071e60                _nl_C_LC_CTYPE
 .data.rel.ro.local
                0x0000000000072150      0x6c8 /usr/lib/gcc-cross/riscv64-linux-gnu/12/../../../../riscv64-linux-gnu/lib/libc.a(vfprintf-internal.o)
 .data.rel.ro.local
                0x0000000000072818      0x6c8 /usr/lib/gcc-cross/riscv64-linux-gnu/12/../../../../riscv64-linux-gnu/lib/libc.a(vfwprintf-internal.o)
 .data.rel.ro.local
                0x0000000000072ee0      0x430 /usr/lib/gcc-cross/riscv64-linux-gnu/12/../../../../riscv64-linux-gnu/lib/libc.a(errlist.o)
                0x0000000000072ee0                _sys_errlist_internal
 .data.rel.ro.local
                0x0000000000073310       0x68 /usr/lib/gcc-cross/riscv64-linux-gnu/12/../../../../riscv64-linux-gnu/lib/libc.a(C-messages.o)
                0x0000000000073310                _nl_C_LC_MESSAGES
 .data.rel.ro.local
                0x0000000000073378      0x1b0 /usr/lib/gcc-cross/riscv64-linux-gnu/12/../../../../riscv64-linux-gnu/lib/libc.a(C-monetary.o)
                0x0000000000073378                _nl_C_LC_MONETARY
 .data.rel.ro.local
                0x0000000000073528       0x70 /usr/lib/gcc-cross/riscv64-linux-gnu/12/../../../../riscv64-linux-gnu/lib/libc.a(C-numeric.o)
                0x0000000000073528                _nl_C_LC_NUMERIC
 .data.rel.ro.local
                0x0000000000073598      0x538 /usr/lib/gcc-cross/riscv64-linux-gnu/12/../../../../riscv64-linux-gnu/lib/libc.a(C-time.o)
                0x0000000000073598                _nl_C_LC_TIME
 .data.rel.ro.local
                0x0000000000073ad0       0x58 /usr/lib/gcc-cross/riscv64-linux-gnu/12/../../../../riscv64-linux-gnu/lib/libc.a(C-paper.o)
                0x0000000000073ad0                _nl_C_LC_PAPER
 .data.rel.ro.local
                0x0000000000073b28       0x78 /usr/lib/gcc-cross/riscv64-linux-gnu/12/../../../../riscv64-linux-gnu/lib/libc.a(C-name.o)
                0x0000000000073b28                _nl_C_LC_NAME
 .data.rel.ro.local
                0x0000000000073ba0       0xa8 /usr/lib/gcc-cross/riscv64-linux-gnu/12/../../../../riscv64-linux-gnu/lib/libc.a(C-address.o)
                0x0000000000073ba0                _nl_C_LC_ADDRESS
 .data.rel.ro.local
                0x0000000000073c48       0x68 /usr/lib/gcc-cross/riscv64-linux-gnu/12/../../../../riscv64-linux-gnu/lib/libc.a(C-telephone.o)
                0x0000000000073c48                _nl_C_LC_TELEPHONE
 .data.rel.ro.local
                0x0000000000073cb0       0x50 /usr/lib/gcc-cross/riscv64-linux-gnu/12/../../../../riscv64-linux-gnu/lib/libc.a(C-measurement.o)
                0x0000000000073cb0                _nl_C_LC_MEASUREMENT
 .data.rel.ro.local
                0x0000000000073d00       0xc0 /usr/lib/gcc-cross/riscv64-linux-gnu/12/../../../../riscv64-linux-gnu/lib/libc.a(C-identification.o)
                0x0000000000073d00                _nl_C_LC_IDENTIFICATION
 .data.rel.ro.local
                0x0000000000073dc0       0xd8 /usr/lib/gcc-cross/riscv64-linux-gnu/12/../../../../riscv64-linux-gnu/lib/libc.a(C-collate.o)
                0x0000000000073dc0                _nl_C_LC_COLLATE
 *(.data.rel.ro .data.rel.ro.* .gnu.linkonce.d.rel.ro.*)
 .data.rel.ro   0x0000000000073e98       0x10 /usr/lib/gcc-cross/riscv64-linux-gnu/12/../../../../riscv64-linux-gnu/lib/libc.a(libc-start.o)
                0x0000000000073e98                __stack_chk_guard
                0x0000000000073ea0                __pointer_chk_guard_local
 .data.rel.ro   0x0000000000073ea8       0xd0 /usr/lib/gcc-cross/riscv64-linux-gnu/12/../../../../riscv64-linux-gnu/lib/libc.a(wcsmbsload.o)
 .data.rel.ro   0x0000000000073f78        0xc /usr/lib/gcc-cross/riscv64-linux-gnu/12/../../../../riscv64-linux-gnu/lib/libc.a(dl-tls_init_tp.o)
                0x0000000000073f78                __rseq_offset
                0x0000000000073f80                __rseq_size
 *fill*         0x0000000000073f84        0x4 
 .data.rel.ro   0x0000000000073f88      0xbd0 /usr/lib/gcc-cross/riscv64-linux-gnu/12/../../../../riscv64-linux-gnu/lib/libc.a(dl-tunables.o)
 .data.rel.ro   0x0000000000074b58       0x38 /usr/lib/gcc-cross/riscv64-linux-gnu/12/../../../../riscv64-linux-gnu/lib/libc.a(dl-support.o)
                0x0000000000074b58                _dl_random
                0x0000000000074b60                _dl_vdso_clock_gettime64
                0x0000000000074b68                _dl_vdso_gettimeofday
                0x0000000000074b70                _dl_vdso_getcpu
                0x0000000000074b78                _dl_vdso_clock_getres_time64
                0x0000000000074b80                _dl_argv
                0x0000000000074b88                __libc_stack_end
 .data.rel.ro   0x0000000000074b90        0x4 /usr/lib/gcc-cross/riscv64-linux-gnu/12/../../../../riscv64-linux-gnu/lib/libc.a(enbl-secure.o)
                0x0000000000074b90                __libc_enable_secure
 *fill*         0x0000000000074b94        0x4 
 .data.rel.ro   0x0000000000074b98      0x180 /usr/lib/gcc-cross/riscv64-linux-gnu/12/../../../../riscv64-linux-gnu/lib/libc.a(gconv_builtin.o)
 .data.rel.ro   0x0000000000074d18       0xd0 /usr/lib/gcc-cross/riscv64-linux-gnu/12/../../../../riscv64-linux-gnu/lib/libc.a(setlocale.o)
 .data.rel.ro   0x0000000000074de8       0x68 /usr/lib/gcc-cross/riscv64-linux-gnu/12/../../../../riscv64-linux-gnu/lib/libc.a(findlocale.o)
                0x0000000000074de8                _nl_C
 .data.rel.ro   0x0000000000074e50       0xe8 /usr/lib/gcc-cross/riscv64-linux-gnu/12/../../../../riscv64-linux-gnu/lib/libc.a(xlocale.o)
                0x0000000000074e50                _nl_C_locobj
 .data.rel.ro   0x0000000000074f38       0x24 /usr/lib/gcc-cross/riscv64-linux-gnu/12/../../../../riscv64-linux-gnu/lib/libc.a(dl-load.o)
                0x0000000000074f38                __rtld_search_dirs
                0x0000000000074f48                __rtld_env_path_list
                0x0000000000074f58                __stack_prot
 *fill*         0x0000000000074f5c        0x4 
 .data.rel.ro   0x0000000000074f60       0x38 /usr/lib/gcc-cross/riscv64-linux-gnu/12/../../../../riscv64-linux-gnu/lib/libc.a(dl-find_object.o)
 .data.rel.ro   0x0000000000074f98       0x68 /usr/lib/gcc-cross/riscv64-linux-gnu/12/../../../../riscv64-linux-gnu/lib/libc.a(rtld_static_init.o)

.dynamic
 *(.dynamic)
                0x0000000000075000                . = DATA_SEGMENT_RELRO_END (., 0x0)

.data           0x0000000000075000     0x1878
                0x0000000000075000                __DATA_BEGIN__ = .
 *(.data .data.* .gnu.linkonce.d.*)
 .data          0x0000000000075000        0x0 /usr/lib/gcc-cross/riscv64-linux-gnu/12/../../../../riscv64-linux-gnu/lib/crt1.o
                0x0000000000075000                data_start
                0x0000000000075000                __data_start
 .data          0x0000000000075000        0x0 /usr/lib/gcc-cross/riscv64-linux-gnu/12/crti.o
 .data          0x0000000000075000        0x0 /usr/lib/gcc-cross/riscv64-linux-gnu/12/crtbeginT.o
 .data          0x0000000000075000        0x0 sum.elf-sum.o
 .data          0x0000000000075000        0x0 /usr/lib/gcc-cross/riscv64-linux-gnu/12/../../../../riscv64-linux-gnu/lib/libc.a(libc-start.o)
 .data          0x0000000000075000        0x0 /usr/lib/gcc-cross/riscv64-linux-gnu/12/../../../../riscv64-linux-gnu/lib/libc.a(check_fds.o)
 .data          0x0000000000075000        0x0 /usr/lib/gcc-cross/riscv64-linux-gnu/12/../../../../riscv64-linux-gnu/lib/libc.a(libc-tls.o)
 .data          0x0000000000075000        0x0 /usr/lib/gcc-cross/riscv64-linux-gnu/12/../../../../riscv64-linux-gnu/lib/libc.a(errno.o)
 .data          0x0000000000075000        0x0 /usr/lib/gcc-cross/riscv64-linux-gnu/12/../../../../riscv64-linux-gnu/lib/libc.a(assert.o)
 .data          0x0000000000075000        0x0 /usr/lib/gcc-cross/riscv64-linux-gnu/12/../../../../riscv64-linux-gnu/lib/libc.a(dcgettext.o)
 .data          0x0000000000075000        0x0 /usr/lib/gcc-cross/riscv64-linux-gnu/12/../../../../riscv64-linux-gnu/lib/libc.a(dcigettext.o)
 .data.rel.local
                0x0000000000075000        0x8 /usr/lib/gcc-cross/riscv64-linux-gnu/12/../../../../riscv64-linux-gnu/lib/libc.a(dcigettext.o)
                0x0000000000075000                _nl_current_default_domain
 .data          0x0000000000075008        0x0 /usr/lib/gcc-cross/riscv64-linux-gnu/12/../../../../riscv64-linux-gnu/lib/libc.a(finddomain.o)
 .data          0x0000000000075008        0x0 /usr/lib/gcc-cross/riscv64-linux-gnu/12/../../../../riscv64-linux-gnu/lib/libc.a(loadmsgcat.o)
 .data          0x0000000000075008        0x0 /usr/lib/gcc-cross/riscv64-linux-gnu/12/../../../../riscv64-linux-gnu/lib/libc.a(localealias.o)
 .data          0x0000000000075008        0x0 /usr/lib/gcc-cross/riscv64-linux-gnu/12/../../../../riscv64-linux-gnu/lib/libc.a(l10nflist.o)
 .data          0x0000000000075008        0x0 /usr/lib/gcc-cross/riscv64-linux-gnu/12/../../../../riscv64-linux-gnu/lib/libc.a(explodename.o)
 .data          0x0000000000075008        0x0 /usr/lib/gcc-cross/riscv64-linux-gnu/12/../../../../riscv64-linux-gnu/lib/libc.a(plural.o)
 .data          0x0000000000075008        0x0 /usr/lib/gcc-cross/riscv64-linux-gnu/12/../../../../riscv64-linux-gnu/lib/libc.a(plural-exp.o)
 .data          0x0000000000075008        0x0 /usr/lib/gcc-cross/riscv64-linux-gnu/12/../../../../riscv64-linux-gnu/lib/libc.a(hash-string.o)
 .data          0x0000000000075008        0x0 /usr/lib/gcc-cross/riscv64-linux-gnu/12/../../../../riscv64-linux-gnu/lib/libc.a(setjmp.o)
 .data          0x0000000000075008        0x0 /usr/lib/gcc-cross/riscv64-linux-gnu/12/../../../../riscv64-linux-gnu/lib/libc.a(sigjmp.o)
 .data          0x0000000000075008        0x0 /usr/lib/gcc-cross/riscv64-linux-gnu/12/../../../../riscv64-linux-gnu/lib/libc.a(raise.o)
 .data          0x0000000000075008        0x0 /usr/lib/gcc-cross/riscv64-linux-gnu/12/../../../../riscv64-linux-gnu/lib/libc.a(sigprocmask.o)
 .data          0x0000000000075008        0x0 /usr/lib/gcc-cross/riscv64-linux-gnu/12/../../../../riscv64-linux-gnu/lib/libc.a(abort.o)
 .data          0x0000000000075008        0x0 /usr/lib/gcc-cross/riscv64-linux-gnu/12/../../../../riscv64-linux-gnu/lib/libc.a(msort.o)
 .data          0x0000000000075008        0x0 /usr/lib/gcc-cross/riscv64-linux-gnu/12/../../../../riscv64-linux-gnu/lib/libc.a(getenv.o)
 .data          0x0000000000075008        0x0 /usr/lib/gcc-cross/riscv64-linux-gnu/12/../../../../riscv64-linux-gnu/lib/libc.a(exit.o)
 .data          0x0000000000075008        0x0 /usr/lib/gcc-cross/riscv64-linux-gnu/12/../../../../riscv64-linux-gnu/lib/libc.a(cxa_atexit.o)
 .data.rel.local
                0x0000000000075008        0x8 /usr/lib/gcc-cross/riscv64-linux-gnu/12/../../../../riscv64-linux-gnu/lib/libc.a(cxa_atexit.o)
                0x0000000000075008                __exit_funcs
 .data          0x0000000000075010        0x0 /usr/lib/gcc-cross/riscv64-linux-gnu/12/../../../../riscv64-linux-gnu/lib/libc.a(strtoul.o)
 .data          0x0000000000075010        0x0 /usr/lib/gcc-cross/riscv64-linux-gnu/12/../../../../riscv64-linux-gnu/lib/libc.a(strtoul_l.o)
 .data          0x0000000000075010        0x0 /usr/lib/gcc-cross/riscv64-linux-gnu/12/../../../../riscv64-linux-gnu/lib/libc.a(grouping.o)
 .data          0x0000000000075010        0x0 /usr/lib/gcc-cross/riscv64-linux-gnu/12/../../../../riscv64-linux-gnu/lib/libc.a(asprintf.o)
 .data          0x0000000000075010        0x0 /usr/lib/gcc-cross/riscv64-linux-gnu/12/../../../../riscv64-linux-gnu/lib/libc.a(fxprintf.o)
 .data          0x0000000000075010        0x0 /usr/lib/gcc-cross/riscv64-linux-gnu/12/../../../../riscv64-linux-gnu/lib/libc.a(iofclose.o)
 .data.rel.local.DW.ref.__gcc_personality_v0
                0x0000000000075010        0x8 /usr/lib/gcc-cross/riscv64-linux-gnu/12/../../../../riscv64-linux-gnu/lib/libc.a(iofclose.o)
                0x0000000000075010                DW.ref.__gcc_personality_v0
 .data          0x0000000000075018        0x0 /usr/lib/gcc-cross/riscv64-linux-gnu/12/../../../../riscv64-linux-gnu/lib/libc.a(iofflush.o)
 .data          0x0000000000075018        0x0 /usr/lib/gcc-cross/riscv64-linux-gnu/12/../../../../riscv64-linux-gnu/lib/libc.a(iofopen.o)
 .data          0x0000000000075018        0x0 /usr/lib/gcc-cross/riscv64-linux-gnu/12/../../../../riscv64-linux-gnu/lib/libc.a(wfileops.o)
 .data          0x0000000000075018        0x0 /usr/lib/gcc-cross/riscv64-linux-gnu/12/../../../../riscv64-linux-gnu/lib/libc.a(iofwide.o)
 .data          0x0000000000075018        0x0 /usr/lib/gcc-cross/riscv64-linux-gnu/12/../../../../riscv64-linux-gnu/lib/libc.a(vasprintf.o)
 .data          0x0000000000075018        0x0 /usr/lib/gcc-cross/riscv64-linux-gnu/12/../../../../riscv64-linux-gnu/lib/libc.a(libc_fatal.o)
 .data          0x0000000000075018        0x0 /usr/lib/gcc-cross/riscv64-linux-gnu/12/../../../../riscv64-linux-gnu/lib/libc.a(vtables.o)
 .data          0x0000000000075018        0x0 /usr/lib/gcc-cross/riscv64-linux-gnu/12/../../../../riscv64-linux-gnu/lib/libc.a(iofgets_u.o)
 .data          0x0000000000075018        0x0 /usr/lib/gcc-cross/riscv64-linux-gnu/12/../../../../riscv64-linux-gnu/lib/libc.a(fileops.o)
 .data          0x0000000000075018        0x0 /usr/lib/gcc-cross/riscv64-linux-gnu/12/../../../../riscv64-linux-gnu/lib/libc.a(genops.o)
 .data          0x0000000000075018        0x0 /usr/lib/gcc-cross/riscv64-linux-gnu/12/../../../../riscv64-linux-gnu/lib/libc.a(stdfiles.o)
 .data.rel.local
                0x0000000000075018      0x560 /usr/lib/gcc-cross/riscv64-linux-gnu/12/../../../../riscv64-linux-gnu/lib/libc.a(stdfiles.o)
                0x0000000000075018                _IO_list_all
                0x0000000000075020                _IO_2_1_stderr_
                0x00000000000751e8                _IO_2_1_stdout_
                0x00000000000753b0                _IO_2_1_stdin_
 .data          0x0000000000075578        0x0 /usr/lib/gcc-cross/riscv64-linux-gnu/12/../../../../riscv64-linux-gnu/lib/libc.a(stdio.o)
 .data.rel      0x0000000000075578       0x18 /usr/lib/gcc-cross/riscv64-linux-gnu/12/../../../../riscv64-linux-gnu/lib/libc.a(stdio.o)
                0x0000000000075578                stderr
                0x0000000000075580                stdout
                0x0000000000075588                stdin
 .data          0x0000000000075590        0x0 /usr/lib/gcc-cross/riscv64-linux-gnu/12/../../../../riscv64-linux-gnu/lib/libc.a(strops.o)
 .data          0x0000000000075590        0x0 /usr/lib/gcc-cross/riscv64-linux-gnu/12/../../../../riscv64-linux-gnu/lib/libc.a(alloca_cutoff.o)
 .data          0x0000000000075590        0x0 /usr/lib/gcc-cross/riscv64-linux-gnu/12/../../../../riscv64-linux-gnu/lib/libc.a(libc-cleanup.o)
 .data          0x0000000000075590        0x0 /usr/lib/gcc-cross/riscv64-linux-gnu/12/../../../../riscv64-linux-gnu/lib/libc.a(lowlevellock.o)
 .data          0x0000000000075590        0x0 /usr/lib/gcc-cross/riscv64-linux-gnu/12/../../../../riscv64-linux-gnu/lib/libc.a(nptl_deallocate_tsd.o)
 .data          0x0000000000075590        0x4 /usr/lib/gcc-cross/riscv64-linux-gnu/12/../../../../riscv64-linux-gnu/lib/libc.a(nptl_nthreads.o)
                0x0000000000075590                __nptl_nthreads
 .data          0x0000000000075594        0x0 /usr/lib/gcc-cross/riscv64-linux-gnu/12/../../../../riscv64-linux-gnu/lib/libc.a(pthread_keys.o)
 .data          0x0000000000075594        0x0 /usr/lib/gcc-cross/riscv64-linux-gnu/12/../../../../riscv64-linux-gnu/lib/libc.a(pthread_kill.o)
 .data          0x0000000000075594        0x0 /usr/lib/gcc-cross/riscv64-linux-gnu/12/../../../../riscv64-linux-gnu/lib/libc.a(pthread_rwlock_init.o)
 .data          0x0000000000075594        0x0 /usr/lib/gcc-cross/riscv64-linux-gnu/12/../../../../riscv64-linux-gnu/lib/libc.a(pthread_rwlock_rdlock.o)
 .data          0x0000000000075594        0x0 /usr/lib/gcc-cross/riscv64-linux-gnu/12/../../../../riscv64-linux-gnu/lib/libc.a(pthread_rwlock_unlock.o)
 .data          0x0000000000075594        0x0 /usr/lib/gcc-cross/riscv64-linux-gnu/12/../../../../riscv64-linux-gnu/lib/libc.a(pthread_rwlock_wrlock.o)
 .data          0x0000000000075594        0x0 /usr/lib/gcc-cross/riscv64-linux-gnu/12/../../../../riscv64-linux-gnu/lib/libc.a(pthread_self.o)
 .data          0x0000000000075594        0x0 /usr/lib/gcc-cross/riscv64-linux-gnu/12/../../../../riscv64-linux-gnu/lib/libc.a(pthread_setcancelstate.o)
 .data          0x0000000000075594        0x0 /usr/lib/gcc-cross/riscv64-linux-gnu/12/../../../../riscv64-linux-gnu/lib/libc.a(pthread_sigmask.o)
 .data          0x0000000000075594        0x0 /usr/lib/gcc-cross/riscv64-linux-gnu/12/../../../../riscv64-linux-gnu/lib/libc.a(pthread_testcancel.o)
 *fill*         0x0000000000075594        0x4 
 .data          0x0000000000075598       0x94 /usr/lib/gcc-cross/riscv64-linux-gnu/12/../../../../riscv64-linux-gnu/lib/libc.a(malloc.o)
 *fill*         0x000000000007562c        0x4 
 .data.rel.local
                0x0000000000075630      0x898 /usr/lib/gcc-cross/riscv64-linux-gnu/12/../../../../riscv64-linux-gnu/lib/libc.a(malloc.o)
 .data          0x0000000000075ec8        0x0 /usr/lib/gcc-cross/riscv64-linux-gnu/12/../../../../riscv64-linux-gnu/lib/libc.a(strchr.o)
 .data          0x0000000000075ec8        0x0 /usr/lib/gcc-cross/riscv64-linux-gnu/12/../../../../riscv64-linux-gnu/lib/libc.a(strcmp.o)
 .data          0x0000000000075ec8        0x0 /usr/lib/gcc-cross/riscv64-linux-gnu/12/../../../../riscv64-linux-gnu/lib/libc.a(strcpy.o)
 .data          0x0000000000075ec8        0x0 /usr/lib/gcc-cross/riscv64-linux-gnu/12/../../../../riscv64-linux-gnu/lib/libc.a(strcspn.o)
 .data          0x0000000000075ec8        0x0 /usr/lib/gcc-cross/riscv64-linux-gnu/12/../../../../riscv64-linux-gnu/lib/libc.a(strdup.o)
 .data          0x0000000000075ec8        0x0 /usr/lib/gcc-cross/riscv64-linux-gnu/12/../../../../riscv64-linux-gnu/lib/libc.a(strlen.o)
 .data          0x0000000000075ec8        0x0 /usr/lib/gcc-cross/riscv64-linux-gnu/12/../../../../riscv64-linux-gnu/lib/libc.a(strncmp.o)
 .data          0x0000000000075ec8        0x0 /usr/lib/gcc-cross/riscv64-linux-gnu/12/../../../../riscv64-linux-gnu/lib/libc.a(strstr.o)
 .data          0x0000000000075ec8        0x0 /usr/lib/gcc-cross/riscv64-linux-gnu/12/../../../../riscv64-linux-gnu/lib/libc.a(memcmp.o)
 .data          0x0000000000075ec8        0x0 /usr/lib/gcc-cross/riscv64-linux-gnu/12/../../../../riscv64-linux-gnu/lib/libc.a(memmove.o)
 .data          0x0000000000075ec8        0x0 /usr/lib/gcc-cross/riscv64-linux-gnu/12/../../../../riscv64-linux-gnu/lib/libc.a(memset.o)
 .data          0x0000000000075ec8        0x0 /usr/lib/gcc-cross/riscv64-linux-gnu/12/../../../../riscv64-linux-gnu/lib/libc.a(stpcpy.o)
 .data          0x0000000000075ec8        0x0 /usr/lib/gcc-cross/riscv64-linux-gnu/12/../../../../riscv64-linux-gnu/lib/libc.a(strcasecmp_l.o)
 .data          0x0000000000075ec8        0x0 /usr/lib/gcc-cross/riscv64-linux-gnu/12/../../../../riscv64-linux-gnu/lib/libc.a(memcpy.o)
 .data          0x0000000000075ec8        0x0 /usr/lib/gcc-cross/riscv64-linux-gnu/12/../../../../riscv64-linux-gnu/lib/libc.a(wordcopy.o)
 .data          0x0000000000075ec8        0x0 /usr/lib/gcc-cross/riscv64-linux-gnu/12/../../../../riscv64-linux-gnu/lib/libc.a(rawmemchr.o)
 .data          0x0000000000075ec8        0x0 /usr/lib/gcc-cross/riscv64-linux-gnu/12/../../../../riscv64-linux-gnu/lib/libc.a(strchrnul.o)
 .data          0x0000000000075ec8        0x0 /usr/lib/gcc-cross/riscv64-linux-gnu/12/../../../../riscv64-linux-gnu/lib/libc.a(wmempcpy.o)
 .data          0x0000000000075ec8        0x0 /usr/lib/gcc-cross/riscv64-linux-gnu/12/../../../../riscv64-linux-gnu/lib/libc.a(mbsrtowcs.o)
 .data          0x0000000000075ec8        0x0 /usr/lib/gcc-cross/riscv64-linux-gnu/12/../../../../riscv64-linux-gnu/lib/libc.a(wcsmbsload.o)
 .data          0x0000000000075ec8        0x0 /usr/lib/gcc-cross/riscv64-linux-gnu/12/../../../../riscv64-linux-gnu/lib/libc.a(mbsrtowcs_l.o)
 .data          0x0000000000075ec8        0x0 /usr/lib/gcc-cross/riscv64-linux-gnu/12/../../../../riscv64-linux-gnu/lib/libc.a(clock_gettime.o)
 .data          0x0000000000075ec8        0x0 /usr/lib/gcc-cross/riscv64-linux-gnu/12/../../../../riscv64-linux-gnu/lib/libc.a(_exit.o)
 .data          0x0000000000075ec8        0x0 /usr/lib/gcc-cross/riscv64-linux-gnu/12/../../../../riscv64-linux-gnu/lib/libc.a(getpid.o)
 .data          0x0000000000075ec8        0x0 /usr/lib/gcc-cross/riscv64-linux-gnu/12/../../../../riscv64-linux-gnu/lib/libc.a(sysconf.o)
 .data          0x0000000000075ec8        0x0 /usr/lib/gcc-cross/riscv64-linux-gnu/12/../../../../riscv64-linux-gnu/lib/libc.a(sched_yield.o)
 .data          0x0000000000075ec8        0x0 /usr/lib/gcc-cross/riscv64-linux-gnu/12/../../../../riscv64-linux-gnu/lib/libc.a(get_child_max.o)
 .data          0x0000000000075ec8        0x0 /usr/lib/gcc-cross/riscv64-linux-gnu/12/../../../../riscv64-linux-gnu/lib/libc.a(environ.o)
 .data          0x0000000000075ec8        0x0 /usr/lib/gcc-cross/riscv64-linux-gnu/12/../../../../riscv64-linux-gnu/lib/libc.a(fstat64.o)
 .data          0x0000000000075ec8        0x0 /usr/lib/gcc-cross/riscv64-linux-gnu/12/../../../../riscv64-linux-gnu/lib/libc.a(fstatat64.o)
 .data          0x0000000000075ec8        0x0 /usr/lib/gcc-cross/riscv64-linux-gnu/12/../../../../riscv64-linux-gnu/lib/libc.a(open64.o)
 .data          0x0000000000075ec8        0x0 /usr/lib/gcc-cross/riscv64-linux-gnu/12/../../../../riscv64-linux-gnu/lib/libc.a(read.o)
 .data          0x0000000000075ec8        0x0 /usr/lib/gcc-cross/riscv64-linux-gnu/12/../../../../riscv64-linux-gnu/lib/libc.a(write.o)
 .data          0x0000000000075ec8        0x0 /usr/lib/gcc-cross/riscv64-linux-gnu/12/../../../../riscv64-linux-gnu/lib/libc.a(lseek64.o)
 .data          0x0000000000075ec8        0x0 /usr/lib/gcc-cross/riscv64-linux-gnu/12/../../../../riscv64-linux-gnu/lib/libc.a(getcwd.o)
 .data          0x0000000000075ec8        0x0 /usr/lib/gcc-cross/riscv64-linux-gnu/12/../../../../riscv64-linux-gnu/lib/libc.a(close_nocancel.o)
 .data          0x0000000000075ec8        0x0 /usr/lib/gcc-cross/riscv64-linux-gnu/12/../../../../riscv64-linux-gnu/lib/libc.a(fcntl_nocancel.o)
 .data          0x0000000000075ec8        0x0 /usr/lib/gcc-cross/riscv64-linux-gnu/12/../../../../riscv64-linux-gnu/lib/libc.a(open64_nocancel.o)
 .data          0x0000000000075ec8        0x0 /usr/lib/gcc-cross/riscv64-linux-gnu/12/../../../../riscv64-linux-gnu/lib/libc.a(read_nocancel.o)
 .data          0x0000000000075ec8        0x0 /usr/lib/gcc-cross/riscv64-linux-gnu/12/../../../../riscv64-linux-gnu/lib/libc.a(write_nocancel.o)
 .data          0x0000000000075ec8        0x0 /usr/lib/gcc-cross/riscv64-linux-gnu/12/../../../../riscv64-linux-gnu/lib/libc.a(getrlimit64.o)
 .data          0x0000000000075ec8        0x0 /usr/lib/gcc-cross/riscv64-linux-gnu/12/../../../../riscv64-linux-gnu/lib/libc.a(brk.o)
 .data          0x0000000000075ec8        0x0 /usr/lib/gcc-cross/riscv64-linux-gnu/12/../../../../riscv64-linux-gnu/lib/libc.a(sbrk.o)
 .data          0x0000000000075ec8        0x0 /usr/lib/gcc-cross/riscv64-linux-gnu/12/../../../../riscv64-linux-gnu/lib/libc.a(getpagesize.o)
 .data          0x0000000000075ec8        0x0 /usr/lib/gcc-cross/riscv64-linux-gnu/12/../../../../riscv64-linux-gnu/lib/libc.a(getdtsz.o)
 .data          0x0000000000075ec8        0x0 /usr/lib/gcc-cross/riscv64-linux-gnu/12/../../../../riscv64-linux-gnu/lib/libc.a(mmap64.o)
 .data          0x0000000000075ec8        0x0 /usr/lib/gcc-cross/riscv64-linux-gnu/12/../../../../riscv64-linux-gnu/lib/libc.a(munmap.o)
 .data          0x0000000000075ec8        0x0 /usr/lib/gcc-cross/riscv64-linux-gnu/12/../../../../riscv64-linux-gnu/lib/libc.a(mprotect.o)
 .data          0x0000000000075ec8        0x0 /usr/lib/gcc-cross/riscv64-linux-gnu/12/../../../../riscv64-linux-gnu/lib/libc.a(madvise.o)
 .data          0x0000000000075ec8        0x0 /usr/lib/gcc-cross/riscv64-linux-gnu/12/../../../../riscv64-linux-gnu/lib/libc.a(tsearch.o)
 .data          0x0000000000075ec8        0x0 /usr/lib/gcc-cross/riscv64-linux-gnu/12/../../../../riscv64-linux-gnu/lib/libc.a(getsysstats.o)
 .data          0x0000000000075ec8        0x0 /usr/lib/gcc-cross/riscv64-linux-gnu/12/../../../../riscv64-linux-gnu/lib/libc.a(getclktck.o)
 .data          0x0000000000075ec8        0x0 /usr/lib/gcc-cross/riscv64-linux-gnu/12/../../../../riscv64-linux-gnu/lib/libc.a(getauxval.o)
 .data          0x0000000000075ec8        0x0 /usr/lib/gcc-cross/riscv64-linux-gnu/12/../../../../riscv64-linux-gnu/lib/libc.a(init-misc.o)
 .data.rel.local
                0x0000000000075ec8       0x10 /usr/lib/gcc-cross/riscv64-linux-gnu/12/../../../../riscv64-linux-gnu/lib/libc.a(init-misc.o)
                0x0000000000075ec8                __progname
                0x0000000000075ec8                program_invocation_short_name
                0x0000000000075ed0                program_invocation_name
                0x0000000000075ed0                __progname_full
 .data          0x0000000000075ed8        0x0 /usr/lib/gcc-cross/riscv64-linux-gnu/12/../../../../riscv64-linux-gnu/lib/libc.a(mremap.o)
 .data          0x0000000000075ed8        0x0 /usr/lib/gcc-cross/riscv64-linux-gnu/12/../../../../riscv64-linux-gnu/lib/libc.a(sysinfo.o)
 .data          0x0000000000075ed8        0x0 /usr/lib/gcc-cross/riscv64-linux-gnu/12/../../../../riscv64-linux-gnu/lib/libc.a(malloc-hugepages.o)
 .data          0x0000000000075ed8        0x0 /usr/lib/gcc-cross/riscv64-linux-gnu/12/../../../../riscv64-linux-gnu/lib/libc.a(stack_chk_fail.o)
 .data          0x0000000000075ed8        0x0 /usr/lib/gcc-cross/riscv64-linux-gnu/12/../../../../riscv64-linux-gnu/lib/libc.a(fortify_fail.o)
 .data          0x0000000000075ed8        0x0 /usr/lib/gcc-cross/riscv64-linux-gnu/12/../../../../riscv64-linux-gnu/lib/libc.a(dl-debug.o)
 .data          0x0000000000075ed8        0x0 /usr/lib/gcc-cross/riscv64-linux-gnu/12/../../../../riscv64-linux-gnu/lib/libc.a(dl-debug-symbols.o)
 .data          0x0000000000075ed8        0x0 /usr/lib/gcc-cross/riscv64-linux-gnu/12/../../../../riscv64-linux-gnu/lib/libc.a(dl-tls.o)
 .data          0x0000000000075ed8        0x0 /usr/lib/gcc-cross/riscv64-linux-gnu/12/../../../../riscv64-linux-gnu/lib/libc.a(dl-tls_init_tp.o)
 .data          0x0000000000075ed8        0x0 /usr/lib/gcc-cross/riscv64-linux-gnu/12/../../../../riscv64-linux-gnu/lib/libc.a(dl-tunables.o)
 .data          0x0000000000075ed8        0x0 /usr/lib/gcc-cross/riscv64-linux-gnu/12/../../../../riscv64-linux-gnu/lib/libc.a(dl-error.o)
 .data          0x0000000000075ed8        0x0 /usr/lib/gcc-cross/riscv64-linux-gnu/12/../../../../riscv64-linux-gnu/lib/libc.a(dl-profstub.o)
 .data          0x0000000000075ed8       0xb0 /usr/lib/gcc-cross/riscv64-linux-gnu/12/../../../../riscv64-linux-gnu/lib/libc.a(dl-support.o)
                0x0000000000075ed8                _dl_minsigstacksize
                0x0000000000075ee0                _dl_pagesize
                0x0000000000075ee8                _dl_nns
                0x0000000000075ef0                _dl_stack_flags
                0x0000000000075ef8                _dl_load_tls_lock
                0x0000000000075f20                _dl_load_write_lock
                0x0000000000075f48                _dl_load_lock
                0x0000000000075f70                _dl_correct_cache_id
                0x0000000000075f74                _dl_debug_fd
                0x0000000000075f78                _dl_load_adds
                0x0000000000075f80                _dl_use_load_bias
 .data.rel.local
                0x0000000000075f88      0x548 /usr/lib/gcc-cross/riscv64-linux-gnu/12/../../../../riscv64-linux-gnu/lib/libc.a(dl-support.o)
                0x00000000000763f8                _dl_initial_searchlist
                0x0000000000076410                _dl_ns
 .data          0x00000000000764d0        0x0 /usr/lib/gcc-cross/riscv64-linux-gnu/12/../../../../riscv64-linux-gnu/lib/libc.a(dl-sysdep.o)
 .data          0x00000000000764d0        0x0 /usr/lib/gcc-cross/riscv64-linux-gnu/12/../../../../riscv64-linux-gnu/lib/libc.a(enbl-secure.o)
 .data          0x00000000000764d0        0x0 /usr/lib/gcc-cross/riscv64-linux-gnu/12/../../../../riscv64-linux-gnu/lib/libc.a(libc_early_init.o)
 .data          0x00000000000764d0        0x0 /usr/lib/gcc-cross/riscv64-linux-gnu/12/../../../../riscv64-linux-gnu/lib/libc.a(init-first.o)
 .data          0x00000000000764d0        0x0 /usr/lib/gcc-cross/riscv64-linux-gnu/12/../../../../riscv64-linux-gnu/lib/libc.a(sysdep.o)
 .data          0x00000000000764d0        0x0 /usr/lib/gcc-cross/riscv64-linux-gnu/12/../../../../riscv64-linux-gnu/lib/libc.a(gconv_open.o)
 .data          0x00000000000764d0        0x0 /usr/lib/gcc-cross/riscv64-linux-gnu/12/../../../../riscv64-linux-gnu/lib/libc.a(gconv.o)
 .data          0x00000000000764d0        0x0 /usr/lib/gcc-cross/riscv64-linux-gnu/12/../../../../riscv64-linux-gnu/lib/libc.a(gconv_close.o)
 .data          0x00000000000764d0        0x0 /usr/lib/gcc-cross/riscv64-linux-gnu/12/../../../../riscv64-linux-gnu/lib/libc.a(gconv_db.o)
 .data          0x00000000000764d0        0x0 /usr/lib/gcc-cross/riscv64-linux-gnu/12/../../../../riscv64-linux-gnu/lib/libc.a(gconv_conf.o)
 .data.rel.local
                0x00000000000764d0      0x2a0 /usr/lib/gcc-cross/riscv64-linux-gnu/12/../../../../riscv64-linux-gnu/lib/libc.a(gconv_conf.o)
 .data          0x0000000000076770        0x0 /usr/lib/gcc-cross/riscv64-linux-gnu/12/../../../../riscv64-linux-gnu/lib/libc.a(gconv_builtin.o)
 .data          0x0000000000076770        0x0 /usr/lib/gcc-cross/riscv64-linux-gnu/12/../../../../riscv64-linux-gnu/lib/libc.a(gconv_simple.o)
 .data          0x0000000000076770        0x0 /usr/lib/gcc-cross/riscv64-linux-gnu/12/../../../../riscv64-linux-gnu/lib/libc.a(gconv_trans.o)
 .data          0x0000000000076770        0x0 /usr/lib/gcc-cross/riscv64-linux-gnu/12/../../../../riscv64-linux-gnu/lib/libc.a(gconv_cache.o)
 .data          0x0000000000076770        0x0 /usr/lib/gcc-cross/riscv64-linux-gnu/12/../../../../riscv64-linux-gnu/lib/libc.a(gconv_dl.o)
 .data          0x0000000000076770        0x0 /usr/lib/gcc-cross/riscv64-linux-gnu/12/../../../../riscv64-linux-gnu/lib/libc.a(gconv_charset.o)
 .data          0x0000000000076770        0x0 /usr/lib/gcc-cross/riscv64-linux-gnu/12/../../../../riscv64-linux-gnu/lib/libc.a(setlocale.o)
 .data          0x0000000000076770        0x0 /usr/lib/gcc-cross/riscv64-linux-gnu/12/../../../../riscv64-linux-gnu/lib/libc.a(findlocale.o)
 .data          0x0000000000076770        0x0 /usr/lib/gcc-cross/riscv64-linux-gnu/12/../../../../riscv64-linux-gnu/lib/libc.a(loadlocale.o)
 .data          0x0000000000076770        0x0 /usr/lib/gcc-cross/riscv64-linux-gnu/12/../../../../riscv64-linux-gnu/lib/libc.a(loadarchive.o)
 .data          0x0000000000076770        0x0 /usr/lib/gcc-cross/riscv64-linux-gnu/12/../../../../riscv64-linux-gnu/lib/libc.a(lc-ctype.o)
 .data          0x0000000000076770        0x0 /usr/lib/gcc-cross/riscv64-linux-gnu/12/../../../../riscv64-linux-gnu/lib/libc.a(C-ctype.o)
 .data          0x0000000000076770        0x0 /usr/lib/gcc-cross/riscv64-linux-gnu/12/../../../../riscv64-linux-gnu/lib/libc.a(SYS_libc.o)
 .data          0x0000000000076770        0x0 /usr/lib/gcc-cross/riscv64-linux-gnu/12/../../../../riscv64-linux-gnu/lib/libc.a(C_name.o)
 .data          0x0000000000076770        0x0 /usr/lib/gcc-cross/riscv64-linux-gnu/12/../../../../riscv64-linux-gnu/lib/libc.a(xlocale.o)
 .data          0x0000000000076770        0x0 /usr/lib/gcc-cross/riscv64-linux-gnu/12/../../../../riscv64-linux-gnu/lib/libc.a(localename.o)
 .data          0x0000000000076770        0x0 /usr/lib/gcc-cross/riscv64-linux-gnu/12/../../../../riscv64-linux-gnu/lib/libc.a(global-locale.o)
 .data.rel      0x0000000000076770       0xe8 /usr/lib/gcc-cross/riscv64-linux-gnu/12/../../../../riscv64-linux-gnu/lib/libc.a(global-locale.o)
                0x0000000000076770                _nl_global_locale
 .data          0x0000000000076858        0x0 /usr/lib/gcc-cross/riscv64-linux-gnu/12/../../../../riscv64-linux-gnu/lib/libc.a(ctype-info.o)
 .data          0x0000000000076858        0x0 /usr/lib/gcc-cross/riscv64-linux-gnu/12/../../../../riscv64-linux-gnu/lib/libc.a(__longjmp.o)
 .data          0x0000000000076858        0x0 /usr/lib/gcc-cross/riscv64-linux-gnu/12/../../../../riscv64-linux-gnu/lib/libc.a(sigaction.o)
 .data          0x0000000000076858        0x0 /usr/lib/gcc-cross/riscv64-linux-gnu/12/../../../../riscv64-linux-gnu/lib/libc.a(libc_sigaction.o)
 .data          0x0000000000076858        0x0 /usr/lib/gcc-cross/riscv64-linux-gnu/12/../../../../riscv64-linux-gnu/lib/libc.a(qsort.o)
 .data          0x0000000000076858        0x0 /usr/lib/gcc-cross/riscv64-linux-gnu/12/../../../../riscv64-linux-gnu/lib/libc.a(setenv.o)
 .data          0x0000000000076858        0x0 /usr/lib/gcc-cross/riscv64-linux-gnu/12/../../../../riscv64-linux-gnu/lib/libc.a(getrandom.o)
 .data          0x0000000000076858        0x0 /usr/lib/gcc-cross/riscv64-linux-gnu/12/../../../../riscv64-linux-gnu/lib/libc.a(strtol.o)
 .data          0x0000000000076858        0x0 /usr/lib/gcc-cross/riscv64-linux-gnu/12/../../../../riscv64-linux-gnu/lib/libc.a(strtol_l.o)
 .data          0x0000000000076858        0x0 /usr/lib/gcc-cross/riscv64-linux-gnu/12/../../../../riscv64-linux-gnu/lib/libc.a(fprintf.o)
 .data          0x0000000000076858        0x0 /usr/lib/gcc-cross/riscv64-linux-gnu/12/../../../../riscv64-linux-gnu/lib/libc.a(vfprintf-internal.o)
 .data          0x0000000000076858        0x0 /usr/lib/gcc-cross/riscv64-linux-gnu/12/../../../../riscv64-linux-gnu/lib/libc.a(vfwprintf-internal.o)
 .data          0x0000000000076858        0x0 /usr/lib/gcc-cross/riscv64-linux-gnu/12/../../../../riscv64-linux-gnu/lib/libc.a(errlist.o)
 .data          0x0000000000076858        0x0 /usr/lib/gcc-cross/riscv64-linux-gnu/12/../../../../riscv64-linux-gnu/lib/libc.a(printf-parsemb.o)
 .data          0x0000000000076858        0x0 /usr/lib/gcc-cross/riscv64-linux-gnu/12/../../../../riscv64-linux-gnu/lib/libc.a(printf-parsewc.o)
 .data          0x0000000000076858        0x0 /usr/lib/gcc-cross/riscv64-linux-gnu/12/../../../../riscv64-linux-gnu/lib/libc.a(filedoalloc.o)
 .data          0x0000000000076858        0x0 /usr/lib/gcc-cross/riscv64-linux-gnu/12/../../../../riscv64-linux-gnu/lib/libc.a(iofputs.o)
 .data          0x0000000000076858        0x0 /usr/lib/gcc-cross/riscv64-linux-gnu/12/../../../../riscv64-linux-gnu/lib/libc.a(wfiledoalloc.o)
 .data          0x0000000000076858        0x0 /usr/lib/gcc-cross/riscv64-linux-gnu/12/../../../../riscv64-linux-gnu/lib/libc.a(iofwrite.o)
 .data          0x0000000000076858        0x0 /usr/lib/gcc-cross/riscv64-linux-gnu/12/../../../../riscv64-linux-gnu/lib/libc.a(iogetdelim.o)
 .data          0x0000000000076858        0x0 /usr/lib/gcc-cross/riscv64-linux-gnu/12/../../../../riscv64-linux-gnu/lib/libc.a(iogetline.o)
 .data          0x0000000000076858        0x0 /usr/lib/gcc-cross/riscv64-linux-gnu/12/../../../../riscv64-linux-gnu/lib/libc.a(iopadn.o)
 .data          0x0000000000076858        0x0 /usr/lib/gcc-cross/riscv64-linux-gnu/12/../../../../riscv64-linux-gnu/lib/libc.a(iowpadn.o)
 .data          0x0000000000076858        0x0 /usr/lib/gcc-cross/riscv64-linux-gnu/12/../../../../riscv64-linux-gnu/lib/libc.a(wgenops.o)
 .data          0x0000000000076858        0x0 /usr/lib/gcc-cross/riscv64-linux-gnu/12/../../../../riscv64-linux-gnu/lib/libc.a(cancellation.o)
 .data          0x0000000000076858        0x0 /usr/lib/gcc-cross/riscv64-linux-gnu/12/../../../../riscv64-linux-gnu/lib/libc.a(futex-internal.o)
 .data          0x0000000000076858        0x4 /usr/lib/gcc-cross/riscv64-linux-gnu/12/../../../../riscv64-linux-gnu/lib/libc.a(pthread_mutex_conf.o)
                0x0000000000076858                __mutex_aconf
 .data          0x000000000007685c        0x0 /usr/lib/gcc-cross/riscv64-linux-gnu/12/../../../../riscv64-linux-gnu/lib/libc.a(pthread_mutex_lock.o)
 .data          0x000000000007685c        0x0 /usr/lib/gcc-cross/riscv64-linux-gnu/12/../../../../riscv64-linux-gnu/lib/libc.a(pthread_mutex_unlock.o)
 .data          0x000000000007685c        0x0 /usr/lib/gcc-cross/riscv64-linux-gnu/12/../../../../riscv64-linux-gnu/lib/libc.a(pthread_once.o)
 .data          0x000000000007685c        0x8 /usr/lib/gcc-cross/riscv64-linux-gnu/12/../../../../riscv64-linux-gnu/lib/libc.a(tpp.o)
                0x000000000007685c                __sched_fifo_max_prio
                0x0000000000076860                __sched_fifo_min_prio
 .data          0x0000000000076864        0x0 /usr/lib/gcc-cross/riscv64-linux-gnu/12/../../../../riscv64-linux-gnu/lib/libc.a(vars.o)
 .data          0x0000000000076864        0x0 /usr/lib/gcc-cross/riscv64-linux-gnu/12/../../../../riscv64-linux-gnu/lib/libc.a(scratch_buffer_grow_preserve.o)
 .data          0x0000000000076864        0x0 /usr/lib/gcc-cross/riscv64-linux-gnu/12/../../../../riscv64-linux-gnu/lib/libc.a(scratch_buffer_set_array_size.o)
 .data          0x0000000000076864        0x0 /usr/lib/gcc-cross/riscv64-linux-gnu/12/../../../../riscv64-linux-gnu/lib/libc.a(strndup.o)
 .data          0x0000000000076864        0x0 /usr/lib/gcc-cross/riscv64-linux-gnu/12/../../../../riscv64-linux-gnu/lib/libc.a(_strerror.o)
 .data          0x0000000000076864        0x0 /usr/lib/gcc-cross/riscv64-linux-gnu/12/../../../../riscv64-linux-gnu/lib/libc.a(strnlen.o)
 .data          0x0000000000076864        0x0 /usr/lib/gcc-cross/riscv64-linux-gnu/12/../../../../riscv64-linux-gnu/lib/libc.a(strrchr.o)
 .data          0x0000000000076864        0x0 /usr/lib/gcc-cross/riscv64-linux-gnu/12/../../../../riscv64-linux-gnu/lib/libc.a(strtok_r.o)
 .data          0x0000000000076864        0x0 /usr/lib/gcc-cross/riscv64-linux-gnu/12/../../../../riscv64-linux-gnu/lib/libc.a(memchr.o)
 .data          0x0000000000076864        0x0 /usr/lib/gcc-cross/riscv64-linux-gnu/12/../../../../riscv64-linux-gnu/lib/libc.a(memmem.o)
 .data          0x0000000000076864        0x0 /usr/lib/gcc-cross/riscv64-linux-gnu/12/../../../../riscv64-linux-gnu/lib/libc.a(argz-ctsep.o)
 .data          0x0000000000076864        0x0 /usr/lib/gcc-cross/riscv64-linux-gnu/12/../../../../riscv64-linux-gnu/lib/libc.a(argz-addsep.o)
 .data          0x0000000000076864        0x0 /usr/lib/gcc-cross/riscv64-linux-gnu/12/../../../../riscv64-linux-gnu/lib/libc.a(wcslen.o)
 .data          0x0000000000076864        0x0 /usr/lib/gcc-cross/riscv64-linux-gnu/12/../../../../riscv64-linux-gnu/lib/libc.a(wmemcpy.o)
 .data          0x0000000000076864        0x0 /usr/lib/gcc-cross/riscv64-linux-gnu/12/../../../../riscv64-linux-gnu/lib/libc.a(wmemmove.o)
 .data          0x0000000000076864        0x0 /usr/lib/gcc-cross/riscv64-linux-gnu/12/../../../../riscv64-linux-gnu/lib/libc.a(btowc.o)
 .data          0x0000000000076864        0x0 /usr/lib/gcc-cross/riscv64-linux-gnu/12/../../../../riscv64-linux-gnu/lib/libc.a(wcrtomb.o)
 .data          0x0000000000076864        0x0 /usr/lib/gcc-cross/riscv64-linux-gnu/12/../../../../riscv64-linux-gnu/lib/libc.a(wcsrtombs.o)
 .data          0x0000000000076864        0x0 /usr/lib/gcc-cross/riscv64-linux-gnu/12/../../../../riscv64-linux-gnu/lib/libc.a(wcsnlen.o)
 .data          0x0000000000076864        0x0 /usr/lib/gcc-cross/riscv64-linux-gnu/12/../../../../riscv64-linux-gnu/lib/libc.a(wcschrnul.o)
 .data          0x0000000000076864        0x0 /usr/lib/gcc-cross/riscv64-linux-gnu/12/../../../../riscv64-linux-gnu/lib/libc.a(opendir.o)
 .data          0x0000000000076864        0x0 /usr/lib/gcc-cross/riscv64-linux-gnu/12/../../../../riscv64-linux-gnu/lib/libc.a(closedir.o)
 .data          0x0000000000076864        0x0 /usr/lib/gcc-cross/riscv64-linux-gnu/12/../../../../riscv64-linux-gnu/lib/libc.a(rewinddir.o)
 .data          0x0000000000076864        0x0 /usr/lib/gcc-cross/riscv64-linux-gnu/12/../../../../riscv64-linux-gnu/lib/libc.a(getdents64.o)
 .data          0x0000000000076864        0x0 /usr/lib/gcc-cross/riscv64-linux-gnu/12/../../../../riscv64-linux-gnu/lib/libc.a(readdir64.o)
 .data          0x0000000000076864        0x0 /usr/lib/gcc-cross/riscv64-linux-gnu/12/../../../../riscv64-linux-gnu/lib/libc.a(fdopendir.o)
 .data          0x0000000000076864        0x0 /usr/lib/gcc-cross/riscv64-linux-gnu/12/../../../../riscv64-linux-gnu/lib/libc.a(uname.o)
 .data          0x0000000000076864        0x0 /usr/lib/gcc-cross/riscv64-linux-gnu/12/../../../../riscv64-linux-gnu/lib/libc.a(getuid.o)
 .data          0x0000000000076864        0x0 /usr/lib/gcc-cross/riscv64-linux-gnu/12/../../../../riscv64-linux-gnu/lib/libc.a(geteuid.o)
 .data          0x0000000000076864        0x0 /usr/lib/gcc-cross/riscv64-linux-gnu/12/../../../../riscv64-linux-gnu/lib/libc.a(getgid.o)
 .data          0x0000000000076864        0x0 /usr/lib/gcc-cross/riscv64-linux-gnu/12/../../../../riscv64-linux-gnu/lib/libc.a(getegid.o)
 .data          0x0000000000076864        0x0 /usr/lib/gcc-cross/riscv64-linux-gnu/12/../../../../riscv64-linux-gnu/lib/libc.a(sched_getp.o)
 .data          0x0000000000076864        0x0 /usr/lib/gcc-cross/riscv64-linux-gnu/12/../../../../riscv64-linux-gnu/lib/libc.a(sched_sets.o)
 .data          0x0000000000076864        0x0 /usr/lib/gcc-cross/riscv64-linux-gnu/12/../../../../riscv64-linux-gnu/lib/libc.a(sched_gets.o)
 .data          0x0000000000076864        0x0 /usr/lib/gcc-cross/riscv64-linux-gnu/12/../../../../riscv64-linux-gnu/lib/libc.a(sched_primax.o)
 .data          0x0000000000076864        0x0 /usr/lib/gcc-cross/riscv64-linux-gnu/12/../../../../riscv64-linux-gnu/lib/libc.a(sched_primin.o)
 .data          0x0000000000076864        0x0 /usr/lib/gcc-cross/riscv64-linux-gnu/12/../../../../riscv64-linux-gnu/lib/libc.a(sched_cpucount.o)
 .data          0x0000000000076864        0x0 /usr/lib/gcc-cross/riscv64-linux-gnu/12/../../../../riscv64-linux-gnu/lib/libc.a(lstat64.o)
 .data          0x0000000000076864        0x0 /usr/lib/gcc-cross/riscv64-linux-gnu/12/../../../../riscv64-linux-gnu/lib/libc.a(openat64.o)
 .data          0x0000000000076864        0x0 /usr/lib/gcc-cross/riscv64-linux-gnu/12/../../../../riscv64-linux-gnu/lib/libc.a(isatty.o)
 .data          0x0000000000076864        0x0 /usr/lib/gcc-cross/riscv64-linux-gnu/12/../../../../riscv64-linux-gnu/lib/libc.a(openat64_nocancel.o)
 .data          0x0000000000076864        0x0 /usr/lib/gcc-cross/riscv64-linux-gnu/12/../../../../riscv64-linux-gnu/lib/libc.a(pread64_nocancel.o)
 .data          0x0000000000076864        0x0 /usr/lib/gcc-cross/riscv64-linux-gnu/12/../../../../riscv64-linux-gnu/lib/libc.a(tcgetattr.o)
 .data          0x0000000000076864        0x1 /usr/lib/gcc-cross/riscv64-linux-gnu/12/../../../../riscv64-linux-gnu/lib/libc.a(single_threaded.o)
                0x0000000000076864                __libc_single_threaded
 .data          0x0000000000076865        0x0 /usr/lib/gcc-cross/riscv64-linux-gnu/12/../../../../riscv64-linux-gnu/lib/libc.a(wctrans.o)
 .data          0x0000000000076865        0x0 /usr/lib/gcc-cross/riscv64-linux-gnu/12/../../../../riscv64-linux-gnu/lib/libc.a(towctrans.o)
 .data          0x0000000000076865        0x0 /usr/lib/gcc-cross/riscv64-linux-gnu/12/../../../../riscv64-linux-gnu/lib/libc.a(readonly-area.o)
 .data          0x0000000000076865        0x0 /usr/lib/gcc-cross/riscv64-linux-gnu/12/../../../../riscv64-linux-gnu/lib/libc.a(dl-exception.o)
 .data          0x0000000000076865        0x0 /usr/lib/gcc-cross/riscv64-linux-gnu/12/../../../../riscv64-linux-gnu/lib/libc.a(dl-load.o)
 .data          0x0000000000076865        0x0 /usr/lib/gcc-cross/riscv64-linux-gnu/12/../../../../riscv64-linux-gnu/lib/libc.a(dl-lookup.o)
 .data          0x0000000000076865        0x0 /usr/lib/gcc-cross/riscv64-linux-gnu/12/../../../../riscv64-linux-gnu/lib/libc.a(dl-minimal-malloc.o)
 .data          0x0000000000076865        0x0 /usr/lib/gcc-cross/riscv64-linux-gnu/12/../../../../riscv64-linux-gnu/lib/libc.a(dl-misc.o)
 .data          0x0000000000076865        0x0 /usr/lib/gcc-cross/riscv64-linux-gnu/12/../../../../riscv64-linux-gnu/lib/libc.a(dl-object.o)
 .data          0x0000000000076865        0x0 /usr/lib/gcc-cross/riscv64-linux-gnu/12/../../../../riscv64-linux-gnu/lib/libc.a(dl-origin.o)
 .data          0x0000000000076865        0x0 /usr/lib/gcc-cross/riscv64-linux-gnu/12/../../../../riscv64-linux-gnu/lib/libc.a(dl-printf.o)
 .data          0x0000000000076865        0x0 /usr/lib/gcc-cross/riscv64-linux-gnu/12/../../../../riscv64-linux-gnu/lib/libc.a(dl-profile.o)
 .data          0x0000000000076865        0x0 /usr/lib/gcc-cross/riscv64-linux-gnu/12/../../../../riscv64-linux-gnu/lib/libc.a(dl-reloc.o)
 .data          0x0000000000076865        0x0 /usr/lib/gcc-cross/riscv64-linux-gnu/12/../../../../riscv64-linux-gnu/lib/libc.a(dl-scope.o)
 .data          0x0000000000076865        0x0 /usr/lib/gcc-cross/riscv64-linux-gnu/12/../../../../riscv64-linux-gnu/lib/libc.a(dl-setup_hash.o)
 .data          0x0000000000076865        0x0 /usr/lib/gcc-cross/riscv64-linux-gnu/12/../../../../riscv64-linux-gnu/lib/libc.a(dl-thread_gscope_wait.o)
 .data          0x0000000000076865        0x0 /usr/lib/gcc-cross/riscv64-linux-gnu/12/../../../../riscv64-linux-gnu/lib/libc.a(dl-trampoline.o)
 .data          0x0000000000076865        0x0 /usr/lib/gcc-cross/riscv64-linux-gnu/12/../../../../riscv64-linux-gnu/lib/libc.a(dl-cache.o)
 .data          0x0000000000076865        0x0 /usr/lib/gcc-cross/riscv64-linux-gnu/12/../../../../riscv64-linux-gnu/lib/libc.a(dl-libc.o)
 .data          0x0000000000076865        0x0 /usr/lib/gcc-cross/riscv64-linux-gnu/12/../../../../riscv64-linux-gnu/lib/libc.a(lc-numeric.o)
 .data          0x0000000000076865        0x0 /usr/lib/gcc-cross/riscv64-linux-gnu/12/../../../../riscv64-linux-gnu/lib/libc.a(C-messages.o)
 .data          0x0000000000076865        0x0 /usr/lib/gcc-cross/riscv64-linux-gnu/12/../../../../riscv64-linux-gnu/lib/libc.a(C-monetary.o)
 .data          0x0000000000076865        0x0 /usr/lib/gcc-cross/riscv64-linux-gnu/12/../../../../riscv64-linux-gnu/lib/libc.a(C-numeric.o)
 .data          0x0000000000076865        0x0 /usr/lib/gcc-cross/riscv64-linux-gnu/12/../../../../riscv64-linux-gnu/lib/libc.a(C-time.o)
 .data          0x0000000000076865        0x0 /usr/lib/gcc-cross/riscv64-linux-gnu/12/../../../../riscv64-linux-gnu/lib/libc.a(C-paper.o)
 .data          0x0000000000076865        0x0 /usr/lib/gcc-cross/riscv64-linux-gnu/12/../../../../riscv64-linux-gnu/lib/libc.a(C-name.o)
 .data          0x0000000000076865        0x0 /usr/lib/gcc-cross/riscv64-linux-gnu/12/../../../../riscv64-linux-gnu/lib/libc.a(C-address.o)
 .data          0x0000000000076865        0x0 /usr/lib/gcc-cross/riscv64-linux-gnu/12/../../../../riscv64-linux-gnu/lib/libc.a(C-telephone.o)
 .data          0x0000000000076865        0x0 /usr/lib/gcc-cross/riscv64-linux-gnu/12/../../../../riscv64-linux-gnu/lib/libc.a(C-measurement.o)
 .data          0x0000000000076865        0x0 /usr/lib/gcc-cross/riscv64-linux-gnu/12/../../../../riscv64-linux-gnu/lib/libc.a(C-identification.o)
 .data          0x0000000000076865        0x0 /usr/lib/gcc-cross/riscv64-linux-gnu/12/../../../../riscv64-linux-gnu/lib/libc.a(C-collate.o)
 .data          0x0000000000076865        0x0 /usr/lib/gcc-cross/riscv64-linux-gnu/12/../../../../riscv64-linux-gnu/lib/libc.a(_itoa.o)
 .data          0x0000000000076865        0x0 /usr/lib/gcc-cross/riscv64-linux-gnu/12/../../../../riscv64-linux-gnu/lib/libc.a(itoa-digits.o)
 .data          0x0000000000076865        0x0 /usr/lib/gcc-cross/riscv64-linux-gnu/12/../../../../riscv64-linux-gnu/lib/libc.a(itoa-udigits.o)
 .data          0x0000000000076865        0x0 /usr/lib/gcc-cross/riscv64-linux-gnu/12/../../../../riscv64-linux-gnu/lib/libc.a(itowa-digits.o)
 .data          0x0000000000076865        0x0 /usr/lib/gcc-cross/riscv64-linux-gnu/12/../../../../riscv64-linux-gnu/lib/libc.a(printf_fp.o)
 .data          0x0000000000076865        0x0 /usr/lib/gcc-cross/riscv64-linux-gnu/12/../../../../riscv64-linux-gnu/lib/libc.a(reg-printf.o)
 .data          0x0000000000076865        0x0 /usr/lib/gcc-cross/riscv64-linux-gnu/12/../../../../riscv64-linux-gnu/lib/libc.a(printf_fphex.o)
 .data          0x0000000000076865        0x0 /usr/lib/gcc-cross/riscv64-linux-gnu/12/../../../../riscv64-linux-gnu/lib/libc.a(reg-modifier.o)
 *fill*         0x0000000000076865        0x3 
 .data          0x0000000000076868        0x4 /usr/lib/gcc-cross/riscv64-linux-gnu/12/../../../../riscv64-linux-gnu/lib/libc.a(reg-type.o)
 .data          0x000000000007686c        0x0 /usr/lib/gcc-cross/riscv64-linux-gnu/12/../../../../riscv64-linux-gnu/lib/libc.a(snprintf.o)
 .data          0x000000000007686c        0x0 /usr/lib/gcc-cross/riscv64-linux-gnu/12/../../../../riscv64-linux-gnu/lib/libc.a(funlockfile.o)
 .data          0x000000000007686c        0x0 /usr/lib/gcc-cross/riscv64-linux-gnu/12/../../../../riscv64-linux-gnu/lib/libc.a(vsnprintf.o)
 .data          0x000000000007686c        0x0 /usr/lib/gcc-cross/riscv64-linux-gnu/12/../../../../riscv64-linux-gnu/lib/libc.a(cleanup_compat.o)
 *fill*         0x000000000007686c        0x4 
 .data          0x0000000000076870        0x8 /usr/lib/gcc-cross/riscv64-linux-gnu/12/../../../../riscv64-linux-gnu/lib/libc.a(nptl-stack.o)
                0x0000000000076870                __nptl_stack_cache_maxsize
 .data          0x0000000000076878        0x0 /usr/lib/gcc-cross/riscv64-linux-gnu/12/../../../../riscv64-linux-gnu/lib/libc.a(strspn.o)
 .data          0x0000000000076878        0x0 /usr/lib/gcc-cross/riscv64-linux-gnu/12/../../../../riscv64-linux-gnu/lib/libc.a(strsep.o)
 .data          0x0000000000076878        0x0 /usr/lib/gcc-cross/riscv64-linux-gnu/12/../../../../riscv64-linux-gnu/lib/libc.a(wmemchr.o)
 .data          0x0000000000076878        0x0 /usr/lib/gcc-cross/riscv64-linux-gnu/12/../../../../riscv64-linux-gnu/lib/libc.a(wmemset.o)
 .data          0x0000000000076878        0x0 /usr/lib/gcc-cross/riscv64-linux-gnu/12/../../../../riscv64-linux-gnu/lib/libc.a(stat64.o)
 .data          0x0000000000076878        0x0 /usr/lib/gcc-cross/riscv64-linux-gnu/12/../../../../riscv64-linux-gnu/lib/libc.a(profil.o)
 .data          0x0000000000076878        0x0 /usr/lib/gcc-cross/riscv64-linux-gnu/12/../../../../riscv64-linux-gnu/lib/libc.a(prof-freq.o)
 .data          0x0000000000076878        0x0 /usr/lib/gcc-cross/riscv64-linux-gnu/12/../../../../riscv64-linux-gnu/lib/libc.a(dl-close.o)
 .data          0x0000000000076878        0x0 /usr/lib/gcc-cross/riscv64-linux-gnu/12/../../../../riscv64-linux-gnu/lib/libc.a(dl-execstack.o)
 .data          0x0000000000076878        0x0 /usr/lib/gcc-cross/riscv64-linux-gnu/12/../../../../riscv64-linux-gnu/lib/libc.a(dl-find_object.o)
 .data          0x0000000000076878        0x0 /usr/lib/gcc-cross/riscv64-linux-gnu/12/../../../../riscv64-linux-gnu/lib/libc.a(dl-open.o)
 .data          0x0000000000076878        0x0 /usr/lib/gcc-cross/riscv64-linux-gnu/12/../../../../riscv64-linux-gnu/lib/libc.a(dl-runtime.o)
 .data          0x0000000000076878        0x0 /usr/lib/gcc-cross/riscv64-linux-gnu/12/../../../../riscv64-linux-gnu/lib/libc.a(dl-sort-maps.o)
 .data          0x0000000000076878        0x0 /usr/lib/gcc-cross/riscv64-linux-gnu/12/../../../../riscv64-linux-gnu/lib/libc.a(dl-version.o)
 .data          0x0000000000076878        0x0 /usr/lib/gcc-cross/riscv64-linux-gnu/12/../../../../riscv64-linux-gnu/lib/libc.a(dl-addr-obj.o)
 .data          0x0000000000076878        0x0 /usr/lib/gcc-cross/riscv64-linux-gnu/12/../../../../riscv64-linux-gnu/lib/libc.a(rtld_static_init.o)
 .data          0x0000000000076878        0x0 /usr/lib/gcc-cross/riscv64-linux-gnu/12/../../../../riscv64-linux-gnu/lib/libc.a(lc-monetary.o)
 .data          0x0000000000076878        0x0 /usr/lib/gcc-cross/riscv64-linux-gnu/12/../../../../riscv64-linux-gnu/lib/libc.a(cmp.o)
 .data          0x0000000000076878        0x0 /usr/lib/gcc-cross/riscv64-linux-gnu/12/../../../../riscv64-linux-gnu/lib/libc.a(divrem.o)
 .data          0x0000000000076878        0x0 /usr/lib/gcc-cross/riscv64-linux-gnu/12/../../../../riscv64-linux-gnu/lib/libc.a(lshift.o)
 .data          0x0000000000076878        0x0 /usr/lib/gcc-cross/riscv64-linux-gnu/12/../../../../riscv64-linux-gnu/lib/libc.a(rshift.o)
 .data          0x0000000000076878        0x0 /usr/lib/gcc-cross/riscv64-linux-gnu/12/../../../../riscv64-linux-gnu/lib/libc.a(mul.o)
 .data          0x0000000000076878        0x0 /usr/lib/gcc-cross/riscv64-linux-gnu/12/../../../../riscv64-linux-gnu/lib/libc.a(mul_1.o)
 .data          0x0000000000076878        0x0 /usr/lib/gcc-cross/riscv64-linux-gnu/12/../../../../riscv64-linux-gnu/lib/libc.a(mul_n.o)
 .data          0x0000000000076878        0x0 /usr/lib/gcc-cross/riscv64-linux-gnu/12/../../../../riscv64-linux-gnu/lib/libc.a(sub_n.o)
 .data          0x0000000000076878        0x0 /usr/lib/gcc-cross/riscv64-linux-gnu/12/../../../../riscv64-linux-gnu/lib/libc.a(submul_1.o)
 .data          0x0000000000076878        0x0 /usr/lib/gcc-cross/riscv64-linux-gnu/12/../../../../riscv64-linux-gnu/lib/libc.a(dbl2mpn.o)
 .data          0x0000000000076878        0x0 /usr/lib/gcc-cross/riscv64-linux-gnu/12/../../../../riscv64-linux-gnu/lib/libc.a(ldbl2mpn.o)
 .data          0x0000000000076878        0x0 /usr/lib/gcc-cross/riscv64-linux-gnu/12/../../../../riscv64-linux-gnu/lib/libc.a(fpioconst.o)
 .data          0x0000000000076878        0x0 /usr/lib/gcc-cross/riscv64-linux-gnu/12/../../../../riscv64-linux-gnu/lib/libc.a(mp_clz_tab.o)
 .data          0x0000000000076878        0x0 /usr/lib/gcc-cross/riscv64-linux-gnu/12/../../../../riscv64-linux-gnu/lib/libc.a(dladdr.o)
 .data          0x0000000000076878        0x0 /usr/lib/gcc-cross/riscv64-linux-gnu/12/../../../../riscv64-linux-gnu/lib/libc.a(dladdr1.o)
 .data          0x0000000000076878        0x0 /usr/lib/gcc-cross/riscv64-linux-gnu/12/../../../../riscv64-linux-gnu/lib/libc.a(dlclose.o)
 .data          0x0000000000076878        0x0 /usr/lib/gcc-cross/riscv64-linux-gnu/12/../../../../riscv64-linux-gnu/lib/libc.a(dlerror.o)
 .data          0x0000000000076878        0x0 /usr/lib/gcc-cross/riscv64-linux-gnu/12/../../../../riscv64-linux-gnu/lib/libc.a(dlinfo.o)
 .data          0x0000000000076878        0x0 /usr/lib/gcc-cross/riscv64-linux-gnu/12/../../../../riscv64-linux-gnu/lib/libc.a(dlmopen.o)
 .data          0x0000000000076878        0x0 /usr/lib/gcc-cross/riscv64-linux-gnu/12/../../../../riscv64-linux-gnu/lib/libc.a(dlopen.o)
 .data          0x0000000000076878        0x0 /usr/lib/gcc-cross/riscv64-linux-gnu/12/../../../../riscv64-linux-gnu/lib/libc.a(dlsym.o)
 .data          0x0000000000076878        0x0 /usr/lib/gcc-cross/riscv64-linux-gnu/12/../../../../riscv64-linux-gnu/lib/libc.a(dlvsym.o)
 .data          0x0000000000076878        0x0 /usr/lib/gcc-cross/riscv64-linux-gnu/12/../../../../riscv64-linux-gnu/lib/libc.a(libc_dlerror_result.o)
 .data          0x0000000000076878        0x0 /usr/lib/gcc-cross/riscv64-linux-gnu/12/../../../../riscv64-linux-gnu/lib/libc.a(setitimer.o)
 .data          0x0000000000076878        0x0 /usr/lib/gcc-cross/riscv64-linux-gnu/12/../../../../riscv64-linux-gnu/lib/libc.a(dl-call-libc-early-init.o)
 .data          0x0000000000076878        0x0 /usr/lib/gcc-cross/riscv64-linux-gnu/12/../../../../riscv64-linux-gnu/lib/libc.a(dl-deps.o)
 .data          0x0000000000076878        0x0 /usr/lib/gcc-cross/riscv64-linux-gnu/12/../../../../riscv64-linux-gnu/lib/libc.a(dl-init.o)
 .data          0x0000000000076878        0x0 /usr/lib/gcc-cross/riscv64-linux-gnu/12/../../../../riscv64-linux-gnu/lib/libc.a(dl-lookup-direct.o)
 .data          0x0000000000076878        0x0 /usr/lib/gcc-cross/riscv64-linux-gnu/12/../../../../riscv64-linux-gnu/lib/libc.a(dl-addr.o)
 .data          0x0000000000076878        0x0 /usr/lib/gcc-cross/riscv64-linux-gnu/12/../../../../riscv64-linux-gnu/lib/libc.a(dl-sym.o)
 .data          0x0000000000076878        0x0 /usr/lib/gcc-cross/riscv64-linux-gnu/12/../../../../riscv64-linux-gnu/lib/libc.a(add_n.o)
 .data          0x0000000000076878        0x0 /usr/lib/gcc-cross/riscv64-linux-gnu/12/../../../../riscv64-linux-gnu/lib/libc.a(addmul_1.o)
 .data          0x0000000000076878        0x0 /usr/lib/gcc-cross/riscv64-linux-gnu/12/libgcc.a(_ctzsi2.o)
 .data          0x0000000000076878        0x0 /usr/lib/gcc-cross/riscv64-linux-gnu/12/libgcc.a(_bswapsi2.o)
 .data          0x0000000000076878        0x0 /usr/lib/gcc-cross/riscv64-linux-gnu/12/libgcc.a(letf2.o)
 .data          0x0000000000076878        0x0 /usr/lib/gcc-cross/riscv64-linux-gnu/12/libgcc.a(unordtf2.o)
 .data          0x0000000000076878        0x0 /usr/lib/gcc-cross/riscv64-linux-gnu/12/libgcc_eh.a(unwind-dw2.o)
 .data          0x0000000000076878        0x0 /usr/lib/gcc-cross/riscv64-linux-gnu/12/libgcc_eh.a(unwind-dw2-fde-dip.o)
 .data          0x0000000000076878        0x0 /usr/lib/gcc-cross/riscv64-linux-gnu/12/libgcc_eh.a(unwind-c.o)
 .data          0x0000000000076878        0x0 /usr/lib/gcc-cross/riscv64-linux-gnu/12/crtend.o
 .data          0x0000000000076878        0x0 /usr/lib/gcc-cross/riscv64-linux-gnu/12/crtn.o

.tm_clone_table
                0x0000000000076878        0x0
 .tm_clone_table
                0x0000000000076878        0x0 /usr/lib/gcc-cross/riscv64-linux-gnu/12/crtbeginT.o
 .tm_clone_table
                0x0000000000076878        0x0 /usr/lib/gcc-cross/riscv64-linux-gnu/12/crtend.o

__libc_subfreeres
                0x0000000000076878       0x48
 __libc_subfreeres
                0x0000000000076878        0x8 /usr/lib/gcc-cross/riscv64-linux-gnu/12/../../../../riscv64-linux-gnu/lib/libc.a(dcigettext.o)
 __libc_subfreeres
                0x0000000000076880        0x8 /usr/lib/gcc-cross/riscv64-linux-gnu/12/../../../../riscv64-linux-gnu/lib/libc.a(genops.o)
 __libc_subfreeres
                0x0000000000076888        0x8 /usr/lib/gcc-cross/riscv64-linux-gnu/12/../../../../riscv64-linux-gnu/lib/libc.a(gconv_db.o)
 __libc_subfreeres
                0x0000000000076890        0x8 /usr/lib/gcc-cross/riscv64-linux-gnu/12/../../../../riscv64-linux-gnu/lib/libc.a(gconv_conf.o)
 __libc_subfreeres
                0x0000000000076898        0x8 /usr/lib/gcc-cross/riscv64-linux-gnu/12/../../../../riscv64-linux-gnu/lib/libc.a(gconv_cache.o)
 __libc_subfreeres
                0x00000000000768a0        0x8 /usr/lib/gcc-cross/riscv64-linux-gnu/12/../../../../riscv64-linux-gnu/lib/libc.a(gconv_dl.o)
 __libc_subfreeres
                0x00000000000768a8        0x8 /usr/lib/gcc-cross/riscv64-linux-gnu/12/../../../../riscv64-linux-gnu/lib/libc.a(setenv.o)
 __libc_subfreeres
                0x00000000000768b0        0x8 /usr/lib/gcc-cross/riscv64-linux-gnu/12/../../../../riscv64-linux-gnu/lib/libc.a(dl-libc.o)
 __libc_subfreeres
                0x00000000000768b8        0x8 /usr/lib/gcc-cross/riscv64-linux-gnu/12/../../../../riscv64-linux-gnu/lib/libc.a(reg-modifier.o)

__libc_IO_vtables
                0x00000000000768c0      0x690
 __libc_IO_vtables
                0x00000000000768c0      0x1f8 /usr/lib/gcc-cross/riscv64-linux-gnu/12/../../../../riscv64-linux-gnu/lib/libc.a(wfileops.o)
                0x00000000000768c0                _IO_wfile_jumps_maybe_mmap
                0x0000000000076968                _IO_wfile_jumps_mmap
                0x0000000000076a10                _IO_wfile_jumps
 __libc_IO_vtables
                0x0000000000076ab8      0x1f8 /usr/lib/gcc-cross/riscv64-linux-gnu/12/../../../../riscv64-linux-gnu/lib/libc.a(fileops.o)
                0x0000000000076ab8                _IO_file_jumps
                0x0000000000076b60                _IO_file_jumps_mmap
                0x0000000000076c08                _IO_file_jumps_maybe_mmap
 __libc_IO_vtables
                0x0000000000076cb0       0xa8 /usr/lib/gcc-cross/riscv64-linux-gnu/12/../../../../riscv64-linux-gnu/lib/libc.a(strops.o)
                0x0000000000076cb0                _IO_str_jumps
 __libc_IO_vtables
                0x0000000000076d58       0xa8 /usr/lib/gcc-cross/riscv64-linux-gnu/12/../../../../riscv64-linux-gnu/lib/libc.a(vfprintf-internal.o)
 __libc_IO_vtables
                0x0000000000076e00       0xa8 /usr/lib/gcc-cross/riscv64-linux-gnu/12/../../../../riscv64-linux-gnu/lib/libc.a(vfwprintf-internal.o)
 __libc_IO_vtables
                0x0000000000076ea8       0xa8 /usr/lib/gcc-cross/riscv64-linux-gnu/12/../../../../riscv64-linux-gnu/lib/libc.a(vsnprintf.o)
                0x0000000000076ea8                _IO_strn_jumps

__libc_atexit   0x0000000000076f50        0x8
 __libc_atexit  0x0000000000076f50        0x8 /usr/lib/gcc-cross/riscv64-linux-gnu/12/../../../../riscv64-linux-gnu/lib/libc.a(genops.o)

.data1
 *(.data1)

.got            0x0000000000076f58      0x460
 *(.got.plt)
 .got.plt       0x0000000000076f58       0x10 /usr/lib/gcc-cross/riscv64-linux-gnu/12/../../../../riscv64-linux-gnu/lib/crt1.o
 *(.igot.plt)
 *(.got)
 .got           0x0000000000076f68      0x450 /usr/lib/gcc-cross/riscv64-linux-gnu/12/../../../../riscv64-linux-gnu/lib/crt1.o
                0x0000000000076f68                _GLOBAL_OFFSET_TABLE_
 *(.igot)

.sdata          0x00000000000773b8        0x8
                0x00000000000773b8                __SDATA_BEGIN__ = .
 *(.srodata.cst16)
 *(.srodata.cst8)
 *(.srodata.cst4)
 *(.srodata.cst2)
 *(.srodata .srodata.*)
 *(.sdata .sdata.* .gnu.linkonce.s.*)
 .sdata         0x00000000000773b8        0x8 /usr/lib/gcc-cross/riscv64-linux-gnu/12/crtbeginT.o
                0x00000000000773b8                __dso_handle
                0x00000000000773c0                _edata = .
                [!provide]                        PROVIDE (edata = .)
                0x00000000000773c0                . = .
                0x00000000000773c0                __bss_start = .

.sbss
 *(.dynsbss)
 *(.sbss .sbss.* .gnu.linkonce.sb.*)
 *(.scommon)

.bss            0x00000000000773c0     0x54b0
 *(.dynbss)
 *(.bss .bss.* .gnu.linkonce.b.*)
 .bss           0x00000000000773c0        0x0 /usr/lib/gcc-cross/riscv64-linux-gnu/12/../../../../riscv64-linux-gnu/lib/crt1.o
 .bss           0x00000000000773c0        0x0 /usr/lib/gcc-cross/riscv64-linux-gnu/12/crti.o
 .bss           0x00000000000773c0       0x38 /usr/lib/gcc-cross/riscv64-linux-gnu/12/crtbeginT.o
 .bss           0x00000000000773f8        0x0 sum.elf-sum.o
 .bss           0x00000000000773f8        0x0 /usr/lib/gcc-cross/riscv64-linux-gnu/12/../../../../riscv64-linux-gnu/lib/libc.a(libc-start.o)
 .bss           0x00000000000773f8        0x0 /usr/lib/gcc-cross/riscv64-linux-gnu/12/../../../../riscv64-linux-gnu/lib/libc.a(check_fds.o)
 .bss           0x00000000000773f8      0x859 /usr/lib/gcc-cross/riscv64-linux-gnu/12/../../../../riscv64-linux-gnu/lib/libc.a(libc-tls.o)
                0x00000000000773f8                _dl_tls_static_surplus
                0x0000000000077400                _dl_static_dtv
                0x0000000000077c10                _dl_tls_max_dtv_idx
                0x0000000000077c18                _dl_tls_dtv_slotinfo_list
                0x0000000000077c20                _dl_tls_static_size
                0x0000000000077c28                _dl_tls_static_used
                0x0000000000077c30                _dl_tls_static_align
                0x0000000000077c38                _dl_tls_static_nelem
                0x0000000000077c40                _dl_tls_generation
                0x0000000000077c48                _dl_tls_static_optional
                0x0000000000077c50                _dl_tls_dtv_gaps
 .bss           0x0000000000077c51        0x0 /usr/lib/gcc-cross/riscv64-linux-gnu/12/../../../../riscv64-linux-gnu/lib/libc.a(errno.o)
 .bss           0x0000000000077c51        0x0 /usr/lib/gcc-cross/riscv64-linux-gnu/12/../../../../riscv64-linux-gnu/lib/libc.a(assert.o)
 .bss           0x0000000000077c51        0x0 /usr/lib/gcc-cross/riscv64-linux-gnu/12/../../../../riscv64-linux-gnu/lib/libc.a(dcgettext.o)
 *fill*         0x0000000000077c51        0x7 
 .bss           0x0000000000077c58       0xb0 /usr/lib/gcc-cross/riscv64-linux-gnu/12/../../../../riscv64-linux-gnu/lib/libc.a(dcigettext.o)
                0x0000000000077c58                _nl_domain_bindings
                0x0000000000077c98                _nl_state_lock
 .bss           0x0000000000077d08       0x40 /usr/lib/gcc-cross/riscv64-linux-gnu/12/../../../../riscv64-linux-gnu/lib/libc.a(finddomain.o)
 .bss           0x0000000000077d48       0x14 /usr/lib/gcc-cross/riscv64-linux-gnu/12/../../../../riscv64-linux-gnu/lib/libc.a(loadmsgcat.o)
                0x0000000000077d58                _nl_msg_cat_cntr
 *fill*         0x0000000000077d5c        0x4 
 .bss           0x0000000000077d60       0x30 /usr/lib/gcc-cross/riscv64-linux-gnu/12/../../../../riscv64-linux-gnu/lib/libc.a(localealias.o)
 .bss           0x0000000000077d90        0x0 /usr/lib/gcc-cross/riscv64-linux-gnu/12/../../../../riscv64-linux-gnu/lib/libc.a(l10nflist.o)
 .bss           0x0000000000077d90        0x0 /usr/lib/gcc-cross/riscv64-linux-gnu/12/../../../../riscv64-linux-gnu/lib/libc.a(explodename.o)
 .bss           0x0000000000077d90        0x0 /usr/lib/gcc-cross/riscv64-linux-gnu/12/../../../../riscv64-linux-gnu/lib/libc.a(plural.o)
 .bss           0x0000000000077d90        0x0 /usr/lib/gcc-cross/riscv64-linux-gnu/12/../../../../riscv64-linux-gnu/lib/libc.a(plural-exp.o)
 .bss           0x0000000000077d90        0x0 /usr/lib/gcc-cross/riscv64-linux-gnu/12/../../../../riscv64-linux-gnu/lib/libc.a(hash-string.o)
 .bss           0x0000000000077d90        0x0 /usr/lib/gcc-cross/riscv64-linux-gnu/12/../../../../riscv64-linux-gnu/lib/libc.a(setjmp.o)
 .bss           0x0000000000077d90        0x0 /usr/lib/gcc-cross/riscv64-linux-gnu/12/../../../../riscv64-linux-gnu/lib/libc.a(sigjmp.o)
 .bss           0x0000000000077d90        0x0 /usr/lib/gcc-cross/riscv64-linux-gnu/12/../../../../riscv64-linux-gnu/lib/libc.a(raise.o)
 .bss           0x0000000000077d90        0x0 /usr/lib/gcc-cross/riscv64-linux-gnu/12/../../../../riscv64-linux-gnu/lib/libc.a(sigprocmask.o)
 .bss           0x0000000000077d90       0x20 /usr/lib/gcc-cross/riscv64-linux-gnu/12/../../../../riscv64-linux-gnu/lib/libc.a(abort.o)
                0x0000000000077da8                __abort_msg
 .bss           0x0000000000077db0       0x10 /usr/lib/gcc-cross/riscv64-linux-gnu/12/../../../../riscv64-linux-gnu/lib/libc.a(msort.o)
 .bss           0x0000000000077dc0        0x0 /usr/lib/gcc-cross/riscv64-linux-gnu/12/../../../../riscv64-linux-gnu/lib/libc.a(getenv.o)
 .bss           0x0000000000077dc0        0x1 /usr/lib/gcc-cross/riscv64-linux-gnu/12/../../../../riscv64-linux-gnu/lib/libc.a(exit.o)
                0x0000000000077dc0                __exit_funcs_done
 *fill*         0x0000000000077dc1        0x7 
 .bss           0x0000000000077dc8      0x420 /usr/lib/gcc-cross/riscv64-linux-gnu/12/../../../../riscv64-linux-gnu/lib/libc.a(cxa_atexit.o)
                0x0000000000077dc8                __new_exitfn_called
                0x0000000000077dd0                __exit_funcs_lock
 .bss           0x00000000000781e8        0x0 /usr/lib/gcc-cross/riscv64-linux-gnu/12/../../../../riscv64-linux-gnu/lib/libc.a(strtoul.o)
 .bss           0x00000000000781e8        0x0 /usr/lib/gcc-cross/riscv64-linux-gnu/12/../../../../riscv64-linux-gnu/lib/libc.a(strtoul_l.o)
 .bss           0x00000000000781e8        0x0 /usr/lib/gcc-cross/riscv64-linux-gnu/12/../../../../riscv64-linux-gnu/lib/libc.a(grouping.o)
 .bss           0x00000000000781e8        0x0 /usr/lib/gcc-cross/riscv64-linux-gnu/12/../../../../riscv64-linux-gnu/lib/libc.a(asprintf.o)
 .bss           0x00000000000781e8        0x0 /usr/lib/gcc-cross/riscv64-linux-gnu/12/../../../../riscv64-linux-gnu/lib/libc.a(fxprintf.o)
 .bss           0x00000000000781e8        0x0 /usr/lib/gcc-cross/riscv64-linux-gnu/12/../../../../riscv64-linux-gnu/lib/libc.a(iofclose.o)
 .bss           0x00000000000781e8        0x0 /usr/lib/gcc-cross/riscv64-linux-gnu/12/../../../../riscv64-linux-gnu/lib/libc.a(iofflush.o)
 .bss           0x00000000000781e8        0x0 /usr/lib/gcc-cross/riscv64-linux-gnu/12/../../../../riscv64-linux-gnu/lib/libc.a(iofopen.o)
 .bss           0x00000000000781e8        0x0 /usr/lib/gcc-cross/riscv64-linux-gnu/12/../../../../riscv64-linux-gnu/lib/libc.a(wfileops.o)
 .bss           0x00000000000781e8        0x0 /usr/lib/gcc-cross/riscv64-linux-gnu/12/../../../../riscv64-linux-gnu/lib/libc.a(iofwide.o)
 .bss           0x00000000000781e8        0x0 /usr/lib/gcc-cross/riscv64-linux-gnu/12/../../../../riscv64-linux-gnu/lib/libc.a(vasprintf.o)
 .bss           0x00000000000781e8        0x0 /usr/lib/gcc-cross/riscv64-linux-gnu/12/../../../../riscv64-linux-gnu/lib/libc.a(libc_fatal.o)
 .bss           0x00000000000781e8        0x0 /usr/lib/gcc-cross/riscv64-linux-gnu/12/../../../../riscv64-linux-gnu/lib/libc.a(vtables.o)
 .bss           0x00000000000781e8        0x0 /usr/lib/gcc-cross/riscv64-linux-gnu/12/../../../../riscv64-linux-gnu/lib/libc.a(iofgets_u.o)
 .bss           0x00000000000781e8        0x0 /usr/lib/gcc-cross/riscv64-linux-gnu/12/../../../../riscv64-linux-gnu/lib/libc.a(fileops.o)
 .bss           0x00000000000781e8       0x2c /usr/lib/gcc-cross/riscv64-linux-gnu/12/../../../../riscv64-linux-gnu/lib/libc.a(genops.o)
 *fill*         0x0000000000078214        0x4 
 .bss           0x0000000000078218       0x30 /usr/lib/gcc-cross/riscv64-linux-gnu/12/../../../../riscv64-linux-gnu/lib/libc.a(stdfiles.o)
 .bss           0x0000000000078248        0x0 /usr/lib/gcc-cross/riscv64-linux-gnu/12/../../../../riscv64-linux-gnu/lib/libc.a(stdio.o)
 .bss           0x0000000000078248        0x0 /usr/lib/gcc-cross/riscv64-linux-gnu/12/../../../../riscv64-linux-gnu/lib/libc.a(strops.o)
 .bss           0x0000000000078248        0x0 /usr/lib/gcc-cross/riscv64-linux-gnu/12/../../../../riscv64-linux-gnu/lib/libc.a(alloca_cutoff.o)
 .bss           0x0000000000078248        0x0 /usr/lib/gcc-cross/riscv64-linux-gnu/12/../../../../riscv64-linux-gnu/lib/libc.a(libc-cleanup.o)
 .bss           0x0000000000078248        0x0 /usr/lib/gcc-cross/riscv64-linux-gnu/12/../../../../riscv64-linux-gnu/lib/libc.a(lowlevellock.o)
 .bss           0x0000000000078248        0x0 /usr/lib/gcc-cross/riscv64-linux-gnu/12/../../../../riscv64-linux-gnu/lib/libc.a(nptl_deallocate_tsd.o)
 .bss           0x0000000000078248        0x0 /usr/lib/gcc-cross/riscv64-linux-gnu/12/../../../../riscv64-linux-gnu/lib/libc.a(nptl_nthreads.o)
 .bss           0x0000000000078248     0x4000 /usr/lib/gcc-cross/riscv64-linux-gnu/12/../../../../riscv64-linux-gnu/lib/libc.a(pthread_keys.o)
                0x0000000000078248                __pthread_keys
 .bss           0x000000000007c248        0x0 /usr/lib/gcc-cross/riscv64-linux-gnu/12/../../../../riscv64-linux-gnu/lib/libc.a(pthread_kill.o)
 .bss           0x000000000007c248        0x0 /usr/lib/gcc-cross/riscv64-linux-gnu/12/../../../../riscv64-linux-gnu/lib/libc.a(pthread_rwlock_init.o)
 .bss           0x000000000007c248        0x0 /usr/lib/gcc-cross/riscv64-linux-gnu/12/../../../../riscv64-linux-gnu/lib/libc.a(pthread_rwlock_rdlock.o)
 .bss           0x000000000007c248        0x0 /usr/lib/gcc-cross/riscv64-linux-gnu/12/../../../../riscv64-linux-gnu/lib/libc.a(pthread_rwlock_unlock.o)
 .bss           0x000000000007c248        0x0 /usr/lib/gcc-cross/riscv64-linux-gnu/12/../../../../riscv64-linux-gnu/lib/libc.a(pthread_rwlock_wrlock.o)
 .bss           0x000000000007c248        0x0 /usr/lib/gcc-cross/riscv64-linux-gnu/12/../../../../riscv64-linux-gnu/lib/libc.a(pthread_self.o)
 .bss           0x000000000007c248        0x0 /usr/lib/gcc-cross/riscv64-linux-gnu/12/../../../../riscv64-linux-gnu/lib/libc.a(pthread_setcancelstate.o)
 .bss           0x000000000007c248        0x0 /usr/lib/gcc-cross/riscv64-linux-gnu/12/../../../../riscv64-linux-gnu/lib/libc.a(pthread_sigmask.o)
 .bss           0x000000000007c248        0x0 /usr/lib/gcc-cross/riscv64-linux-gnu/12/../../../../riscv64-linux-gnu/lib/libc.a(pthread_testcancel.o)
 .bss           0x000000000007c248       0x58 /usr/lib/gcc-cross/riscv64-linux-gnu/12/../../../../riscv64-linux-gnu/lib/libc.a(malloc.o)
 .bss           0x000000000007c2a0        0x0 /usr/lib/gcc-cross/riscv64-linux-gnu/12/../../../../riscv64-linux-gnu/lib/libc.a(strchr.o)
 .bss           0x000000000007c2a0        0x0 /usr/lib/gcc-cross/riscv64-linux-gnu/12/../../../../riscv64-linux-gnu/lib/libc.a(strcmp.o)
 .bss           0x000000000007c2a0        0x0 /usr/lib/gcc-cross/riscv64-linux-gnu/12/../../../../riscv64-linux-gnu/lib/libc.a(strcpy.o)
 .bss           0x000000000007c2a0        0x0 /usr/lib/gcc-cross/riscv64-linux-gnu/12/../../../../riscv64-linux-gnu/lib/libc.a(strcspn.o)
 .bss           0x000000000007c2a0        0x0 /usr/lib/gcc-cross/riscv64-linux-gnu/12/../../../../riscv64-linux-gnu/lib/libc.a(strdup.o)
 .bss           0x000000000007c2a0        0x0 /usr/lib/gcc-cross/riscv64-linux-gnu/12/../../../../riscv64-linux-gnu/lib/libc.a(strlen.o)
 .bss           0x000000000007c2a0        0x0 /usr/lib/gcc-cross/riscv64-linux-gnu/12/../../../../riscv64-linux-gnu/lib/libc.a(strncmp.o)
 .bss           0x000000000007c2a0        0x0 /usr/lib/gcc-cross/riscv64-linux-gnu/12/../../../../riscv64-linux-gnu/lib/libc.a(strstr.o)
 .bss           0x000000000007c2a0        0x0 /usr/lib/gcc-cross/riscv64-linux-gnu/12/../../../../riscv64-linux-gnu/lib/libc.a(memcmp.o)
 .bss           0x000000000007c2a0        0x0 /usr/lib/gcc-cross/riscv64-linux-gnu/12/../../../../riscv64-linux-gnu/lib/libc.a(memmove.o)
 .bss           0x000000000007c2a0        0x0 /usr/lib/gcc-cross/riscv64-linux-gnu/12/../../../../riscv64-linux-gnu/lib/libc.a(memset.o)
 .bss           0x000000000007c2a0        0x0 /usr/lib/gcc-cross/riscv64-linux-gnu/12/../../../../riscv64-linux-gnu/lib/libc.a(stpcpy.o)
 .bss           0x000000000007c2a0        0x0 /usr/lib/gcc-cross/riscv64-linux-gnu/12/../../../../riscv64-linux-gnu/lib/libc.a(strcasecmp_l.o)
 .bss           0x000000000007c2a0        0x0 /usr/lib/gcc-cross/riscv64-linux-gnu/12/../../../../riscv64-linux-gnu/lib/libc.a(memcpy.o)
 .bss           0x000000000007c2a0        0x0 /usr/lib/gcc-cross/riscv64-linux-gnu/12/../../../../riscv64-linux-gnu/lib/libc.a(wordcopy.o)
 .bss           0x000000000007c2a0        0x0 /usr/lib/gcc-cross/riscv64-linux-gnu/12/../../../../riscv64-linux-gnu/lib/libc.a(rawmemchr.o)
 .bss           0x000000000007c2a0        0x0 /usr/lib/gcc-cross/riscv64-linux-gnu/12/../../../../riscv64-linux-gnu/lib/libc.a(strchrnul.o)
 .bss           0x000000000007c2a0        0x0 /usr/lib/gcc-cross/riscv64-linux-gnu/12/../../../../riscv64-linux-gnu/lib/libc.a(wmempcpy.o)
 .bss           0x000000000007c2a0        0x8 /usr/lib/gcc-cross/riscv64-linux-gnu/12/../../../../riscv64-linux-gnu/lib/libc.a(mbsrtowcs.o)
 .bss           0x000000000007c2a8        0x0 /usr/lib/gcc-cross/riscv64-linux-gnu/12/../../../../riscv64-linux-gnu/lib/libc.a(wcsmbsload.o)
 .bss           0x000000000007c2a8        0x0 /usr/lib/gcc-cross/riscv64-linux-gnu/12/../../../../riscv64-linux-gnu/lib/libc.a(mbsrtowcs_l.o)
 .bss           0x000000000007c2a8        0x0 /usr/lib/gcc-cross/riscv64-linux-gnu/12/../../../../riscv64-linux-gnu/lib/libc.a(clock_gettime.o)
 .bss           0x000000000007c2a8        0x0 /usr/lib/gcc-cross/riscv64-linux-gnu/12/../../../../riscv64-linux-gnu/lib/libc.a(_exit.o)
 .bss           0x000000000007c2a8        0x0 /usr/lib/gcc-cross/riscv64-linux-gnu/12/../../../../riscv64-linux-gnu/lib/libc.a(getpid.o)
 .bss           0x000000000007c2a8        0x0 /usr/lib/gcc-cross/riscv64-linux-gnu/12/../../../../riscv64-linux-gnu/lib/libc.a(sysconf.o)
 .bss           0x000000000007c2a8        0x0 /usr/lib/gcc-cross/riscv64-linux-gnu/12/../../../../riscv64-linux-gnu/lib/libc.a(sched_yield.o)
 .bss           0x000000000007c2a8        0x0 /usr/lib/gcc-cross/riscv64-linux-gnu/12/../../../../riscv64-linux-gnu/lib/libc.a(get_child_max.o)
 .bss           0x000000000007c2a8        0x8 /usr/lib/gcc-cross/riscv64-linux-gnu/12/../../../../riscv64-linux-gnu/lib/libc.a(environ.o)
                0x000000000007c2a8                _environ
                0x000000000007c2a8                __environ
                0x000000000007c2a8                environ
 .bss           0x000000000007c2b0        0x0 /usr/lib/gcc-cross/riscv64-linux-gnu/12/../../../../riscv64-linux-gnu/lib/libc.a(fstat64.o)
 .bss           0x000000000007c2b0        0x0 /usr/lib/gcc-cross/riscv64-linux-gnu/12/../../../../riscv64-linux-gnu/lib/libc.a(fstatat64.o)
 .bss           0x000000000007c2b0        0x0 /usr/lib/gcc-cross/riscv64-linux-gnu/12/../../../../riscv64-linux-gnu/lib/libc.a(open64.o)
 .bss           0x000000000007c2b0        0x0 /usr/lib/gcc-cross/riscv64-linux-gnu/12/../../../../riscv64-linux-gnu/lib/libc.a(read.o)
 .bss           0x000000000007c2b0        0x0 /usr/lib/gcc-cross/riscv64-linux-gnu/12/../../../../riscv64-linux-gnu/lib/libc.a(write.o)
 .bss           0x000000000007c2b0        0x0 /usr/lib/gcc-cross/riscv64-linux-gnu/12/../../../../riscv64-linux-gnu/lib/libc.a(lseek64.o)
 .bss           0x000000000007c2b0        0x0 /usr/lib/gcc-cross/riscv64-linux-gnu/12/../../../../riscv64-linux-gnu/lib/libc.a(getcwd.o)
 .bss           0x000000000007c2b0        0x0 /usr/lib/gcc-cross/riscv64-linux-gnu/12/../../../../riscv64-linux-gnu/lib/libc.a(close_nocancel.o)
 .bss           0x000000000007c2b0        0x0 /usr/lib/gcc-cross/riscv64-linux-gnu/12/../../../../riscv64-linux-gnu/lib/libc.a(fcntl_nocancel.o)
 .bss           0x000000000007c2b0        0x0 /usr/lib/gcc-cross/riscv64-linux-gnu/12/../../../../riscv64-linux-gnu/lib/libc.a(open64_nocancel.o)
 .bss           0x000000000007c2b0        0x0 /usr/lib/gcc-cross/riscv64-linux-gnu/12/../../../../riscv64-linux-gnu/lib/libc.a(read_nocancel.o)
 .bss           0x000000000007c2b0        0x0 /usr/lib/gcc-cross/riscv64-linux-gnu/12/../../../../riscv64-linux-gnu/lib/libc.a(write_nocancel.o)
 .bss           0x000000000007c2b0        0x0 /usr/lib/gcc-cross/riscv64-linux-gnu/12/../../../../riscv64-linux-gnu/lib/libc.a(getrlimit64.o)
 .bss           0x000000000007c2b0        0x8 /usr/lib/gcc-cross/riscv64-linux-gnu/12/../../../../riscv64-linux-gnu/lib/libc.a(brk.o)
                0x000000000007c2b0                ___brk_addr
                0x000000000007c2b0                __curbrk
 .bss           0x000000000007c2b8        0x0 /usr/lib/gcc-cross/riscv64-linux-gnu/12/../../../../riscv64-linux-gnu/lib/libc.a(sbrk.o)
 .bss           0x000000000007c2b8        0x0 /usr/lib/gcc-cross/riscv64-linux-gnu/12/../../../../riscv64-linux-gnu/lib/libc.a(getpagesize.o)
 .bss           0x000000000007c2b8        0x0 /usr/lib/gcc-cross/riscv64-linux-gnu/12/../../../../riscv64-linux-gnu/lib/libc.a(getdtsz.o)
 .bss           0x000000000007c2b8        0x0 /usr/lib/gcc-cross/riscv64-linux-gnu/12/../../../../riscv64-linux-gnu/lib/libc.a(mmap64.o)
 .bss           0x000000000007c2b8        0x0 /usr/lib/gcc-cross/riscv64-linux-gnu/12/../../../../riscv64-linux-gnu/lib/libc.a(munmap.o)
 .bss           0x000000000007c2b8        0x0 /usr/lib/gcc-cross/riscv64-linux-gnu/12/../../../../riscv64-linux-gnu/lib/libc.a(mprotect.o)
 .bss           0x000000000007c2b8        0x0 /usr/lib/gcc-cross/riscv64-linux-gnu/12/../../../../riscv64-linux-gnu/lib/libc.a(madvise.o)
 .bss           0x000000000007c2b8        0x0 /usr/lib/gcc-cross/riscv64-linux-gnu/12/../../../../riscv64-linux-gnu/lib/libc.a(tsearch.o)
 .bss           0x000000000007c2b8        0x0 /usr/lib/gcc-cross/riscv64-linux-gnu/12/../../../../riscv64-linux-gnu/lib/libc.a(getsysstats.o)
 .bss           0x000000000007c2b8        0x0 /usr/lib/gcc-cross/riscv64-linux-gnu/12/../../../../riscv64-linux-gnu/lib/libc.a(getclktck.o)
 .bss           0x000000000007c2b8        0x0 /usr/lib/gcc-cross/riscv64-linux-gnu/12/../../../../riscv64-linux-gnu/lib/libc.a(getauxval.o)
 .bss           0x000000000007c2b8        0x0 /usr/lib/gcc-cross/riscv64-linux-gnu/12/../../../../riscv64-linux-gnu/lib/libc.a(init-misc.o)
 .bss           0x000000000007c2b8        0x0 /usr/lib/gcc-cross/riscv64-linux-gnu/12/../../../../riscv64-linux-gnu/lib/libc.a(mremap.o)
 .bss           0x000000000007c2b8        0x0 /usr/lib/gcc-cross/riscv64-linux-gnu/12/../../../../riscv64-linux-gnu/lib/libc.a(sysinfo.o)
 .bss           0x000000000007c2b8        0x0 /usr/lib/gcc-cross/riscv64-linux-gnu/12/../../../../riscv64-linux-gnu/lib/libc.a(malloc-hugepages.o)
 .bss           0x000000000007c2b8        0x0 /usr/lib/gcc-cross/riscv64-linux-gnu/12/../../../../riscv64-linux-gnu/lib/libc.a(stack_chk_fail.o)
 .bss           0x000000000007c2b8        0x0 /usr/lib/gcc-cross/riscv64-linux-gnu/12/../../../../riscv64-linux-gnu/lib/libc.a(fortify_fail.o)
 .bss           0x000000000007c2b8        0x0 /usr/lib/gcc-cross/riscv64-linux-gnu/12/../../../../riscv64-linux-gnu/lib/libc.a(dl-debug.o)
 .bss           0x000000000007c2b8       0x30 /usr/lib/gcc-cross/riscv64-linux-gnu/12/../../../../riscv64-linux-gnu/lib/libc.a(dl-debug-symbols.o)
                0x000000000007c2b8                _r_debug_extended
                0x000000000007c2b8                _r_debug
 .bss           0x000000000007c2e8        0x0 /usr/lib/gcc-cross/riscv64-linux-gnu/12/../../../../riscv64-linux-gnu/lib/libc.a(dl-tls.o)
 .bss           0x000000000007c2e8        0x2 /usr/lib/gcc-cross/riscv64-linux-gnu/12/../../../../riscv64-linux-gnu/lib/libc.a(dl-tls_init_tp.o)
                0x000000000007c2e8                __nptl_initial_report_events
                0x000000000007c2e9                __nptl_set_robust_list_avail
 .bss           0x000000000007c2ea        0x0 /usr/lib/gcc-cross/riscv64-linux-gnu/12/../../../../riscv64-linux-gnu/lib/libc.a(dl-tunables.o)
 .bss           0x000000000007c2ea        0x0 /usr/lib/gcc-cross/riscv64-linux-gnu/12/../../../../riscv64-linux-gnu/lib/libc.a(dl-error.o)
 .bss           0x000000000007c2ea        0x0 /usr/lib/gcc-cross/riscv64-linux-gnu/12/../../../../riscv64-linux-gnu/lib/libc.a(dl-profstub.o)
 *fill*         0x000000000007c2ea        0x6 
 .bss           0x000000000007c2f0      0x120 /usr/lib/gcc-cross/riscv64-linux-gnu/12/../../../../riscv64-linux-gnu/lib/libc.a(dl-support.o)
                0x000000000007c2f0                _dl_auxv
                0x000000000007c2f8                _dl_sysinfo_dso
                0x000000000007c300                _dl_fpu_control
                0x000000000007c308                _dl_hwcap2
                0x000000000007c310                _dl_hwcap
                0x000000000007c318                _dl_platform
                0x000000000007c320                _dl_phnum
                0x000000000007c328                _dl_phdr
                0x000000000007c330                _dl_clktck
                0x000000000007c334                _dl_verbose
                0x000000000007c338                _dl_debug_mask
                0x000000000007c340                _dl_sysinfo_map
                0x000000000007c348                _dl_init_all_dirs
                0x000000000007c350                _dl_all_dirs
                0x000000000007c358                _dl_lazy
                0x000000000007c35c                _dl_bind_not
                0x000000000007c360                _dl_dynamic_weak
                0x000000000007c368                _dl_profile_output
                0x000000000007c370                _dl_osversion
                0x000000000007c378                _dl_platformlen
                0x000000000007c380                _dl_scope_free_list
                0x000000000007c388                _dl_stack_cache_lock
                0x000000000007c390                _dl_in_flight_stack
                0x000000000007c398                _dl_stack_cache_actsize
                0x000000000007c3a0                _dl_stack_cache
                0x000000000007c3b0                _dl_stack_user
                0x000000000007c3c0                _dl_stack_used
                0x000000000007c3d0                _dl_dso_sort_algo
                0x000000000007c3d8                _dl_initfirst
                0x000000000007c3e0                _dl_inhibit_cache
                0x000000000007c3f0                _dl_origin_path
                0x000000000007c3f8                _dl_profile_map
                0x000000000007c400                _dl_inhibit_rpath
                0x000000000007c408                _dl_profile
 .bss           0x000000000007c410        0x0 /usr/lib/gcc-cross/riscv64-linux-gnu/12/../../../../riscv64-linux-gnu/lib/libc.a(dl-sysdep.o)
 .bss           0x000000000007c410        0x4 /usr/lib/gcc-cross/riscv64-linux-gnu/12/../../../../riscv64-linux-gnu/lib/libc.a(enbl-secure.o)
                0x000000000007c410                __libc_enable_secure_decided
 .bss           0x000000000007c414        0x0 /usr/lib/gcc-cross/riscv64-linux-gnu/12/../../../../riscv64-linux-gnu/lib/libc.a(libc_early_init.o)
 *fill*         0x000000000007c414        0x4 
 .bss           0x000000000007c418       0x10 /usr/lib/gcc-cross/riscv64-linux-gnu/12/../../../../riscv64-linux-gnu/lib/libc.a(init-first.o)
                0x000000000007c418                __libc_argc
                0x000000000007c420                __libc_argv
 .bss           0x000000000007c428        0x0 /usr/lib/gcc-cross/riscv64-linux-gnu/12/../../../../riscv64-linux-gnu/lib/libc.a(sysdep.o)
 .bss           0x000000000007c428        0x0 /usr/lib/gcc-cross/riscv64-linux-gnu/12/../../../../riscv64-linux-gnu/lib/libc.a(gconv_open.o)
 .bss           0x000000000007c428        0x0 /usr/lib/gcc-cross/riscv64-linux-gnu/12/../../../../riscv64-linux-gnu/lib/libc.a(gconv.o)
 .bss           0x000000000007c428        0x0 /usr/lib/gcc-cross/riscv64-linux-gnu/12/../../../../riscv64-linux-gnu/lib/libc.a(gconv_close.o)
 .bss           0x000000000007c428       0x1c /usr/lib/gcc-cross/riscv64-linux-gnu/12/../../../../riscv64-linux-gnu/lib/libc.a(gconv_db.o)
                0x000000000007c428                __gconv_modules_db
                0x000000000007c430                __gconv_alias_db
                0x000000000007c440                __gconv_lock
 *fill*         0x000000000007c444        0x4 
 .bss           0x000000000007c448       0x20 /usr/lib/gcc-cross/riscv64-linux-gnu/12/../../../../riscv64-linux-gnu/lib/libc.a(gconv_conf.o)
                0x000000000007c448                __gconv_path_elem
                0x000000000007c450                __gconv_path_envvar
                0x000000000007c458                __gconv_max_path_elem_len
 .bss           0x000000000007c468        0x0 /usr/lib/gcc-cross/riscv64-linux-gnu/12/../../../../riscv64-linux-gnu/lib/libc.a(gconv_builtin.o)
 .bss           0x000000000007c468        0x0 /usr/lib/gcc-cross/riscv64-linux-gnu/12/../../../../riscv64-linux-gnu/lib/libc.a(gconv_simple.o)
 .bss           0x000000000007c468        0x0 /usr/lib/gcc-cross/riscv64-linux-gnu/12/../../../../riscv64-linux-gnu/lib/libc.a(gconv_trans.o)
 .bss           0x000000000007c468       0x18 /usr/lib/gcc-cross/riscv64-linux-gnu/12/../../../../riscv64-linux-gnu/lib/libc.a(gconv_cache.o)
 .bss           0x000000000007c480        0x8 /usr/lib/gcc-cross/riscv64-linux-gnu/12/../../../../riscv64-linux-gnu/lib/libc.a(gconv_dl.o)
 .bss           0x000000000007c488        0x0 /usr/lib/gcc-cross/riscv64-linux-gnu/12/../../../../riscv64-linux-gnu/lib/libc.a(gconv_charset.o)
 .bss           0x000000000007c488       0x38 /usr/lib/gcc-cross/riscv64-linux-gnu/12/../../../../riscv64-linux-gnu/lib/libc.a(setlocale.o)
                0x000000000007c488                __libc_setlocale_lock
 .bss           0x000000000007c4c0       0x68 /usr/lib/gcc-cross/riscv64-linux-gnu/12/../../../../riscv64-linux-gnu/lib/libc.a(findlocale.o)
                0x000000000007c4c0                _nl_locale_file_list
 .bss           0x000000000007c528        0x0 /usr/lib/gcc-cross/riscv64-linux-gnu/12/../../../../riscv64-linux-gnu/lib/libc.a(loadlocale.o)
 .bss           0x000000000007c528       0xa8 /usr/lib/gcc-cross/riscv64-linux-gnu/12/../../../../riscv64-linux-gnu/lib/libc.a(loadarchive.o)
 .bss           0x000000000007c5d0        0x0 /usr/lib/gcc-cross/riscv64-linux-gnu/12/../../../../riscv64-linux-gnu/lib/libc.a(lc-ctype.o)
 .bss           0x000000000007c5d0        0x0 /usr/lib/gcc-cross/riscv64-linux-gnu/12/../../../../riscv64-linux-gnu/lib/libc.a(C-ctype.o)
 .bss           0x000000000007c5d0        0x0 /usr/lib/gcc-cross/riscv64-linux-gnu/12/../../../../riscv64-linux-gnu/lib/libc.a(SYS_libc.o)
 .bss           0x000000000007c5d0        0x0 /usr/lib/gcc-cross/riscv64-linux-gnu/12/../../../../riscv64-linux-gnu/lib/libc.a(C_name.o)
 .bss           0x000000000007c5d0        0x0 /usr/lib/gcc-cross/riscv64-linux-gnu/12/../../../../riscv64-linux-gnu/lib/libc.a(xlocale.o)
 .bss           0x000000000007c5d0        0x0 /usr/lib/gcc-cross/riscv64-linux-gnu/12/../../../../riscv64-linux-gnu/lib/libc.a(localename.o)
 .bss           0x000000000007c5d0        0x0 /usr/lib/gcc-cross/riscv64-linux-gnu/12/../../../../riscv64-linux-gnu/lib/libc.a(global-locale.o)
 .bss           0x000000000007c5d0        0x0 /usr/lib/gcc-cross/riscv64-linux-gnu/12/../../../../riscv64-linux-gnu/lib/libc.a(ctype-info.o)
 .bss           0x000000000007c5d0        0x0 /usr/lib/gcc-cross/riscv64-linux-gnu/12/../../../../riscv64-linux-gnu/lib/libc.a(__longjmp.o)
 .bss           0x000000000007c5d0        0x0 /usr/lib/gcc-cross/riscv64-linux-gnu/12/../../../../riscv64-linux-gnu/lib/libc.a(sigaction.o)
 .bss           0x000000000007c5d0        0x0 /usr/lib/gcc-cross/riscv64-linux-gnu/12/../../../../riscv64-linux-gnu/lib/libc.a(libc_sigaction.o)
 .bss           0x000000000007c5d0        0x0 /usr/lib/gcc-cross/riscv64-linux-gnu/12/../../../../riscv64-linux-gnu/lib/libc.a(qsort.o)
 .bss           0x000000000007c5d0       0x18 /usr/lib/gcc-cross/riscv64-linux-gnu/12/../../../../riscv64-linux-gnu/lib/libc.a(setenv.o)
 .bss           0x000000000007c5e8        0x0 /usr/lib/gcc-cross/riscv64-linux-gnu/12/../../../../riscv64-linux-gnu/lib/libc.a(getrandom.o)
 .bss           0x000000000007c5e8        0x0 /usr/lib/gcc-cross/riscv64-linux-gnu/12/../../../../riscv64-linux-gnu/lib/libc.a(strtol.o)
 .bss           0x000000000007c5e8        0x0 /usr/lib/gcc-cross/riscv64-linux-gnu/12/../../../../riscv64-linux-gnu/lib/libc.a(strtol_l.o)
 .bss           0x000000000007c5e8        0x0 /usr/lib/gcc-cross/riscv64-linux-gnu/12/../../../../riscv64-linux-gnu/lib/libc.a(fprintf.o)
 .bss           0x000000000007c5e8        0x0 /usr/lib/gcc-cross/riscv64-linux-gnu/12/../../../../riscv64-linux-gnu/lib/libc.a(vfprintf-internal.o)
 .bss           0x000000000007c5e8        0x0 /usr/lib/gcc-cross/riscv64-linux-gnu/12/../../../../riscv64-linux-gnu/lib/libc.a(vfwprintf-internal.o)
 .bss           0x000000000007c5e8        0x0 /usr/lib/gcc-cross/riscv64-linux-gnu/12/../../../../riscv64-linux-gnu/lib/libc.a(errlist.o)
 .bss           0x000000000007c5e8        0x0 /usr/lib/gcc-cross/riscv64-linux-gnu/12/../../../../riscv64-linux-gnu/lib/libc.a(printf-parsemb.o)
 .bss           0x000000000007c5e8        0x0 /usr/lib/gcc-cross/riscv64-linux-gnu/12/../../../../riscv64-linux-gnu/lib/libc.a(printf-parsewc.o)
 .bss           0x000000000007c5e8        0x0 /usr/lib/gcc-cross/riscv64-linux-gnu/12/../../../../riscv64-linux-gnu/lib/libc.a(filedoalloc.o)
 .bss           0x000000000007c5e8        0x0 /usr/lib/gcc-cross/riscv64-linux-gnu/12/../../../../riscv64-linux-gnu/lib/libc.a(iofputs.o)
 .bss           0x000000000007c5e8        0x0 /usr/lib/gcc-cross/riscv64-linux-gnu/12/../../../../riscv64-linux-gnu/lib/libc.a(wfiledoalloc.o)
 .bss           0x000000000007c5e8        0x0 /usr/lib/gcc-cross/riscv64-linux-gnu/12/../../../../riscv64-linux-gnu/lib/libc.a(iofwrite.o)
 .bss           0x000000000007c5e8        0x0 /usr/lib/gcc-cross/riscv64-linux-gnu/12/../../../../riscv64-linux-gnu/lib/libc.a(iogetdelim.o)
 .bss           0x000000000007c5e8        0x0 /usr/lib/gcc-cross/riscv64-linux-gnu/12/../../../../riscv64-linux-gnu/lib/libc.a(iogetline.o)
 .bss           0x000000000007c5e8        0x0 /usr/lib/gcc-cross/riscv64-linux-gnu/12/../../../../riscv64-linux-gnu/lib/libc.a(iopadn.o)
 .bss           0x000000000007c5e8        0x0 /usr/lib/gcc-cross/riscv64-linux-gnu/12/../../../../riscv64-linux-gnu/lib/libc.a(iowpadn.o)
 .bss           0x000000000007c5e8        0x0 /usr/lib/gcc-cross/riscv64-linux-gnu/12/../../../../riscv64-linux-gnu/lib/libc.a(wgenops.o)
 .bss           0x000000000007c5e8        0x0 /usr/lib/gcc-cross/riscv64-linux-gnu/12/../../../../riscv64-linux-gnu/lib/libc.a(cancellation.o)
 .bss           0x000000000007c5e8        0x0 /usr/lib/gcc-cross/riscv64-linux-gnu/12/../../../../riscv64-linux-gnu/lib/libc.a(futex-internal.o)
 .bss           0x000000000007c5e8        0x0 /usr/lib/gcc-cross/riscv64-linux-gnu/12/../../../../riscv64-linux-gnu/lib/libc.a(pthread_mutex_conf.o)
 .bss           0x000000000007c5e8        0x0 /usr/lib/gcc-cross/riscv64-linux-gnu/12/../../../../riscv64-linux-gnu/lib/libc.a(pthread_mutex_lock.o)
 .bss           0x000000000007c5e8        0x0 /usr/lib/gcc-cross/riscv64-linux-gnu/12/../../../../riscv64-linux-gnu/lib/libc.a(pthread_mutex_unlock.o)
 .bss           0x000000000007c5e8        0x8 /usr/lib/gcc-cross/riscv64-linux-gnu/12/../../../../riscv64-linux-gnu/lib/libc.a(pthread_once.o)
                0x000000000007c5e8                __fork_generation
 .bss           0x000000000007c5f0        0x0 /usr/lib/gcc-cross/riscv64-linux-gnu/12/../../../../riscv64-linux-gnu/lib/libc.a(tpp.o)
 .bss           0x000000000007c5f0       0x40 /usr/lib/gcc-cross/riscv64-linux-gnu/12/../../../../riscv64-linux-gnu/lib/libc.a(vars.o)
                0x000000000007c5f0                __default_pthread_attr_lock
                0x000000000007c5f8                __default_pthread_attr
 .bss           0x000000000007c630        0x0 /usr/lib/gcc-cross/riscv64-linux-gnu/12/../../../../riscv64-linux-gnu/lib/libc.a(scratch_buffer_grow_preserve.o)
 .bss           0x000000000007c630        0x0 /usr/lib/gcc-cross/riscv64-linux-gnu/12/../../../../riscv64-linux-gnu/lib/libc.a(scratch_buffer_set_array_size.o)
 .bss           0x000000000007c630        0x0 /usr/lib/gcc-cross/riscv64-linux-gnu/12/../../../../riscv64-linux-gnu/lib/libc.a(strndup.o)
 .bss           0x000000000007c630        0x0 /usr/lib/gcc-cross/riscv64-linux-gnu/12/../../../../riscv64-linux-gnu/lib/libc.a(_strerror.o)
 .bss           0x000000000007c630        0x0 /usr/lib/gcc-cross/riscv64-linux-gnu/12/../../../../riscv64-linux-gnu/lib/libc.a(strnlen.o)
 .bss           0x000000000007c630        0x0 /usr/lib/gcc-cross/riscv64-linux-gnu/12/../../../../riscv64-linux-gnu/lib/libc.a(strrchr.o)
 .bss           0x000000000007c630        0x0 /usr/lib/gcc-cross/riscv64-linux-gnu/12/../../../../riscv64-linux-gnu/lib/libc.a(strtok_r.o)
 .bss           0x000000000007c630        0x0 /usr/lib/gcc-cross/riscv64-linux-gnu/12/../../../../riscv64-linux-gnu/lib/libc.a(memchr.o)
 .bss           0x000000000007c630        0x0 /usr/lib/gcc-cross/riscv64-linux-gnu/12/../../../../riscv64-linux-gnu/lib/libc.a(memmem.o)
 .bss           0x000000000007c630        0x0 /usr/lib/gcc-cross/riscv64-linux-gnu/12/../../../../riscv64-linux-gnu/lib/libc.a(argz-ctsep.o)
 .bss           0x000000000007c630        0x0 /usr/lib/gcc-cross/riscv64-linux-gnu/12/../../../../riscv64-linux-gnu/lib/libc.a(argz-addsep.o)
 .bss           0x000000000007c630        0x0 /usr/lib/gcc-cross/riscv64-linux-gnu/12/../../../../riscv64-linux-gnu/lib/libc.a(wcslen.o)
 .bss           0x000000000007c630        0x0 /usr/lib/gcc-cross/riscv64-linux-gnu/12/../../../../riscv64-linux-gnu/lib/libc.a(wmemcpy.o)
 .bss           0x000000000007c630        0x0 /usr/lib/gcc-cross/riscv64-linux-gnu/12/../../../../riscv64-linux-gnu/lib/libc.a(wmemmove.o)
 .bss           0x000000000007c630        0x0 /usr/lib/gcc-cross/riscv64-linux-gnu/12/../../../../riscv64-linux-gnu/lib/libc.a(btowc.o)
 .bss           0x000000000007c630        0x8 /usr/lib/gcc-cross/riscv64-linux-gnu/12/../../../../riscv64-linux-gnu/lib/libc.a(wcrtomb.o)
 .bss           0x000000000007c638        0x8 /usr/lib/gcc-cross/riscv64-linux-gnu/12/../../../../riscv64-linux-gnu/lib/libc.a(wcsrtombs.o)
 .bss           0x000000000007c640        0x0 /usr/lib/gcc-cross/riscv64-linux-gnu/12/../../../../riscv64-linux-gnu/lib/libc.a(wcsnlen.o)
 .bss           0x000000000007c640        0x0 /usr/lib/gcc-cross/riscv64-linux-gnu/12/../../../../riscv64-linux-gnu/lib/libc.a(wcschrnul.o)
 .bss           0x000000000007c640        0x0 /usr/lib/gcc-cross/riscv64-linux-gnu/12/../../../../riscv64-linux-gnu/lib/libc.a(opendir.o)
 .bss           0x000000000007c640        0x0 /usr/lib/gcc-cross/riscv64-linux-gnu/12/../../../../riscv64-linux-gnu/lib/libc.a(closedir.o)
 .bss           0x000000000007c640        0x0 /usr/lib/gcc-cross/riscv64-linux-gnu/12/../../../../riscv64-linux-gnu/lib/libc.a(rewinddir.o)
 .bss           0x000000000007c640        0x0 /usr/lib/gcc-cross/riscv64-linux-gnu/12/../../../../riscv64-linux-gnu/lib/libc.a(getdents64.o)
 .bss           0x000000000007c640        0x0 /usr/lib/gcc-cross/riscv64-linux-gnu/12/../../../../riscv64-linux-gnu/lib/libc.a(readdir64.o)
 .bss           0x000000000007c640        0x0 /usr/lib/gcc-cross/riscv64-linux-gnu/12/../../../../riscv64-linux-gnu/lib/libc.a(fdopendir.o)
 .bss           0x000000000007c640        0x0 /usr/lib/gcc-cross/riscv64-linux-gnu/12/../../../../riscv64-linux-gnu/lib/libc.a(uname.o)
 .bss           0x000000000007c640        0x0 /usr/lib/gcc-cross/riscv64-linux-gnu/12/../../../../riscv64-linux-gnu/lib/libc.a(getuid.o)
 .bss           0x000000000007c640        0x0 /usr/lib/gcc-cross/riscv64-linux-gnu/12/../../../../riscv64-linux-gnu/lib/libc.a(geteuid.o)
 .bss           0x000000000007c640        0x0 /usr/lib/gcc-cross/riscv64-linux-gnu/12/../../../../riscv64-linux-gnu/lib/libc.a(getgid.o)
 .bss           0x000000000007c640        0x0 /usr/lib/gcc-cross/riscv64-linux-gnu/12/../../../../riscv64-linux-gnu/lib/libc.a(getegid.o)
 .bss           0x000000000007c640        0x0 /usr/lib/gcc-cross/riscv64-linux-gnu/12/../../../../riscv64-linux-gnu/lib/libc.a(sched_getp.o)
 .bss           0x000000000007c640        0x0 /usr/lib/gcc-cross/riscv64-linux-gnu/12/../../../../riscv64-linux-gnu/lib/libc.a(sched_sets.o)
 .bss           0x000000000007c640        0x0 /usr/lib/gcc-cross/riscv64-linux-gnu/12/../../../../riscv64-linux-gnu/lib/libc.a(sched_gets.o)
 .bss           0x000000000007c640        0x0 /usr/lib/gcc-cross/riscv64-linux-gnu/12/../../../../riscv64-linux-gnu/lib/libc.a(sched_primax.o)
 .bss           0x000000000007c640        0x0 /usr/lib/gcc-cross/riscv64-linux-gnu/12/../../../../riscv64-linux-gnu/lib/libc.a(sched_primin.o)
 .bss           0x000000000007c640        0x0 /usr/lib/gcc-cross/riscv64-linux-gnu/12/../../../../riscv64-linux-gnu/lib/libc.a(sched_cpucount.o)
 .bss           0x000000000007c640        0x0 /usr/lib/gcc-cross/riscv64-linux-gnu/12/../../../../riscv64-linux-gnu/lib/libc.a(lstat64.o)
 .bss           0x000000000007c640        0x0 /usr/lib/gcc-cross/riscv64-linux-gnu/12/../../../../riscv64-linux-gnu/lib/libc.a(openat64.o)
 .bss           0x000000000007c640        0x0 /usr/lib/gcc-cross/riscv64-linux-gnu/12/../../../../riscv64-linux-gnu/lib/libc.a(isatty.o)
 .bss           0x000000000007c640        0x0 /usr/lib/gcc-cross/riscv64-linux-gnu/12/../../../../riscv64-linux-gnu/lib/libc.a(openat64_nocancel.o)
 .bss           0x000000000007c640        0x0 /usr/lib/gcc-cross/riscv64-linux-gnu/12/../../../../riscv64-linux-gnu/lib/libc.a(pread64_nocancel.o)
 .bss           0x000000000007c640        0x0 /usr/lib/gcc-cross/riscv64-linux-gnu/12/../../../../riscv64-linux-gnu/lib/libc.a(tcgetattr.o)
 .bss           0x000000000007c640        0x0 /usr/lib/gcc-cross/riscv64-linux-gnu/12/../../../../riscv64-linux-gnu/lib/libc.a(single_threaded.o)
 .bss           0x000000000007c640        0x0 /usr/lib/gcc-cross/riscv64-linux-gnu/12/../../../../riscv64-linux-gnu/lib/libc.a(wctrans.o)
 .bss           0x000000000007c640        0x0 /usr/lib/gcc-cross/riscv64-linux-gnu/12/../../../../riscv64-linux-gnu/lib/libc.a(towctrans.o)
 .bss           0x000000000007c640        0x0 /usr/lib/gcc-cross/riscv64-linux-gnu/12/../../../../riscv64-linux-gnu/lib/libc.a(readonly-area.o)
 .bss           0x000000000007c640        0x0 /usr/lib/gcc-cross/riscv64-linux-gnu/12/../../../../riscv64-linux-gnu/lib/libc.a(dl-exception.o)
 .bss           0x000000000007c640        0x8 /usr/lib/gcc-cross/riscv64-linux-gnu/12/../../../../riscv64-linux-gnu/lib/libc.a(dl-load.o)
 .bss           0x000000000007c648        0x0 /usr/lib/gcc-cross/riscv64-linux-gnu/12/../../../../riscv64-linux-gnu/lib/libc.a(dl-lookup.o)
 .bss           0x000000000007c648       0x18 /usr/lib/gcc-cross/riscv64-linux-gnu/12/../../../../riscv64-linux-gnu/lib/libc.a(dl-minimal-malloc.o)
 .bss           0x000000000007c660        0x0 /usr/lib/gcc-cross/riscv64-linux-gnu/12/../../../../riscv64-linux-gnu/lib/libc.a(dl-misc.o)
 .bss           0x000000000007c660        0x0 /usr/lib/gcc-cross/riscv64-linux-gnu/12/../../../../riscv64-linux-gnu/lib/libc.a(dl-object.o)
 .bss           0x000000000007c660        0x0 /usr/lib/gcc-cross/riscv64-linux-gnu/12/../../../../riscv64-linux-gnu/lib/libc.a(dl-origin.o)
 .bss           0x000000000007c660        0x0 /usr/lib/gcc-cross/riscv64-linux-gnu/12/../../../../riscv64-linux-gnu/lib/libc.a(dl-printf.o)
 .bss           0x000000000007c660       0x48 /usr/lib/gcc-cross/riscv64-linux-gnu/12/../../../../riscv64-linux-gnu/lib/libc.a(dl-profile.o)
 .bss           0x000000000007c6a8        0x0 /usr/lib/gcc-cross/riscv64-linux-gnu/12/../../../../riscv64-linux-gnu/lib/libc.a(dl-reloc.o)
 .bss           0x000000000007c6a8        0x0 /usr/lib/gcc-cross/riscv64-linux-gnu/12/../../../../riscv64-linux-gnu/lib/libc.a(dl-scope.o)
 .bss           0x000000000007c6a8        0x0 /usr/lib/gcc-cross/riscv64-linux-gnu/12/../../../../riscv64-linux-gnu/lib/libc.a(dl-setup_hash.o)
 .bss           0x000000000007c6a8        0x0 /usr/lib/gcc-cross/riscv64-linux-gnu/12/../../../../riscv64-linux-gnu/lib/libc.a(dl-thread_gscope_wait.o)
 .bss           0x000000000007c6a8        0x0 /usr/lib/gcc-cross/riscv64-linux-gnu/12/../../../../riscv64-linux-gnu/lib/libc.a(dl-trampoline.o)
 .bss           0x000000000007c6a8       0x18 /usr/lib/gcc-cross/riscv64-linux-gnu/12/../../../../riscv64-linux-gnu/lib/libc.a(dl-cache.o)
 .bss           0x000000000007c6c0        0x0 /usr/lib/gcc-cross/riscv64-linux-gnu/12/../../../../riscv64-linux-gnu/lib/libc.a(dl-libc.o)
 .bss           0x000000000007c6c0        0x0 /usr/lib/gcc-cross/riscv64-linux-gnu/12/../../../../riscv64-linux-gnu/lib/libc.a(lc-numeric.o)
 .bss           0x000000000007c6c0        0x0 /usr/lib/gcc-cross/riscv64-linux-gnu/12/../../../../riscv64-linux-gnu/lib/libc.a(C-messages.o)
 .bss           0x000000000007c6c0        0x0 /usr/lib/gcc-cross/riscv64-linux-gnu/12/../../../../riscv64-linux-gnu/lib/libc.a(C-monetary.o)
 .bss           0x000000000007c6c0        0x0 /usr/lib/gcc-cross/riscv64-linux-gnu/12/../../../../riscv64-linux-gnu/lib/libc.a(C-numeric.o)
 .bss           0x000000000007c6c0        0x0 /usr/lib/gcc-cross/riscv64-linux-gnu/12/../../../../riscv64-linux-gnu/lib/libc.a(C-time.o)
 .bss           0x000000000007c6c0        0x0 /usr/lib/gcc-cross/riscv64-linux-gnu/12/../../../../riscv64-linux-gnu/lib/libc.a(C-paper.o)
 .bss           0x000000000007c6c0        0x0 /usr/lib/gcc-cross/riscv64-linux-gnu/12/../../../../riscv64-linux-gnu/lib/libc.a(C-name.o)
 .bss           0x000000000007c6c0        0x0 /usr/lib/gcc-cross/riscv64-linux-gnu/12/../../../../riscv64-linux-gnu/lib/libc.a(C-address.o)
 .bss           0x000000000007c6c0        0x0 /usr/lib/gcc-cross/riscv64-linux-gnu/12/../../../../riscv64-linux-gnu/lib/libc.a(C-telephone.o)
 .bss           0x000000000007c6c0        0x0 /usr/lib/gcc-cross/riscv64-linux-gnu/12/../../../../riscv64-linux-gnu/lib/libc.a(C-measurement.o)
 .bss           0x000000000007c6c0        0x0 /usr/lib/gcc-cross/riscv64-linux-gnu/12/../../../../riscv64-linux-gnu/lib/libc.a(C-identification.o)
 .bss           0x000000000007c6c0        0x0 /usr/lib/gcc-cross/riscv64-linux-gnu/12/../../../../riscv64-linux-gnu/lib/libc.a(C-collate.o)
 .bss           0x000000000007c6c0        0x0 /usr/lib/gcc-cross/riscv64-linux-gnu/12/../../../../riscv64-linux-gnu/lib/libc.a(_itoa.o)
 .bss           0x000000000007c6c0        0x0 /usr/lib/gcc-cross/riscv64-linux-gnu/12/../../../../riscv64-linux-gnu/lib/libc.a(itoa-digits.o)
 .bss           0x000000000007c6c0        0x0 /usr/lib/gcc-cross/riscv64-linux-gnu/12/../../../../riscv64-linux-gnu/lib/libc.a(itoa-udigits.o)
 .bss           0x000000000007c6c0        0x0 /usr/lib/gcc-cross/riscv64-linux-gnu/12/../../../../riscv64-linux-gnu/lib/libc.a(itowa-digits.o)
 .bss           0x000000000007c6c0        0x0 /usr/lib/gcc-cross/riscv64-linux-gnu/12/../../../../riscv64-linux-gnu/lib/libc.a(printf_fp.o)
 .bss           0x000000000007c6c0       0x10 /usr/lib/gcc-cross/riscv64-linux-gnu/12/../../../../riscv64-linux-gnu/lib/libc.a(reg-printf.o)
                0x000000000007c6c8                __printf_function_table
 .bss           0x000000000007c6d0        0x0 /usr/lib/gcc-cross/riscv64-linux-gnu/12/../../../../riscv64-linux-gnu/lib/libc.a(printf_fphex.o)
 .bss           0x000000000007c6d0       0x10 /usr/lib/gcc-cross/riscv64-linux-gnu/12/../../../../riscv64-linux-gnu/lib/libc.a(reg-modifier.o)
                0x000000000007c6d0                __printf_modifier_table
 .bss           0x000000000007c6e0        0x4 /usr/lib/gcc-cross/riscv64-linux-gnu/12/../../../../riscv64-linux-gnu/lib/libc.a(reg-type.o)
 .bss           0x000000000007c6e4        0x0 /usr/lib/gcc-cross/riscv64-linux-gnu/12/../../../../riscv64-linux-gnu/lib/libc.a(snprintf.o)
 .bss           0x000000000007c6e4        0x0 /usr/lib/gcc-cross/riscv64-linux-gnu/12/../../../../riscv64-linux-gnu/lib/libc.a(funlockfile.o)
 .bss           0x000000000007c6e4        0x0 /usr/lib/gcc-cross/riscv64-linux-gnu/12/../../../../riscv64-linux-gnu/lib/libc.a(vsnprintf.o)
 .bss           0x000000000007c6e4        0x0 /usr/lib/gcc-cross/riscv64-linux-gnu/12/../../../../riscv64-linux-gnu/lib/libc.a(cleanup_compat.o)
 .bss           0x000000000007c6e4        0x0 /usr/lib/gcc-cross/riscv64-linux-gnu/12/../../../../riscv64-linux-gnu/lib/libc.a(nptl-stack.o)
 .bss           0x000000000007c6e4        0x0 /usr/lib/gcc-cross/riscv64-linux-gnu/12/../../../../riscv64-linux-gnu/lib/libc.a(strspn.o)
 .bss           0x000000000007c6e4        0x0 /usr/lib/gcc-cross/riscv64-linux-gnu/12/../../../../riscv64-linux-gnu/lib/libc.a(strsep.o)
 .bss           0x000000000007c6e4        0x0 /usr/lib/gcc-cross/riscv64-linux-gnu/12/../../../../riscv64-linux-gnu/lib/libc.a(wmemchr.o)
 .bss           0x000000000007c6e4        0x0 /usr/lib/gcc-cross/riscv64-linux-gnu/12/../../../../riscv64-linux-gnu/lib/libc.a(wmemset.o)
 .bss           0x000000000007c6e4        0x0 /usr/lib/gcc-cross/riscv64-linux-gnu/12/../../../../riscv64-linux-gnu/lib/libc.a(stat64.o)
 *fill*         0x000000000007c6e4        0x4 
 .bss           0x000000000007c6e8       0xd8 /usr/lib/gcc-cross/riscv64-linux-gnu/12/../../../../riscv64-linux-gnu/lib/libc.a(profil.o)
 .bss           0x000000000007c7c0        0x0 /usr/lib/gcc-cross/riscv64-linux-gnu/12/../../../../riscv64-linux-gnu/lib/libc.a(prof-freq.o)
 .bss           0x000000000007c7c0        0x4 /usr/lib/gcc-cross/riscv64-linux-gnu/12/../../../../riscv64-linux-gnu/lib/libc.a(dl-close.o)
 .bss           0x000000000007c7c4        0x0 /usr/lib/gcc-cross/riscv64-linux-gnu/12/../../../../riscv64-linux-gnu/lib/libc.a(dl-execstack.o)
 *fill*         0x000000000007c7c4        0x4 
 .bss           0x000000000007c7c8       0x18 /usr/lib/gcc-cross/riscv64-linux-gnu/12/../../../../riscv64-linux-gnu/lib/libc.a(dl-find_object.o)
 .bss           0x000000000007c7e0        0x0 /usr/lib/gcc-cross/riscv64-linux-gnu/12/../../../../riscv64-linux-gnu/lib/libc.a(dl-open.o)
 .bss           0x000000000007c7e0        0x0 /usr/lib/gcc-cross/riscv64-linux-gnu/12/../../../../riscv64-linux-gnu/lib/libc.a(dl-runtime.o)
 .bss           0x000000000007c7e0        0x0 /usr/lib/gcc-cross/riscv64-linux-gnu/12/../../../../riscv64-linux-gnu/lib/libc.a(dl-sort-maps.o)
 .bss           0x000000000007c7e0        0x0 /usr/lib/gcc-cross/riscv64-linux-gnu/12/../../../../riscv64-linux-gnu/lib/libc.a(dl-version.o)
 .bss           0x000000000007c7e0        0x0 /usr/lib/gcc-cross/riscv64-linux-gnu/12/../../../../riscv64-linux-gnu/lib/libc.a(dl-addr-obj.o)
 .bss           0x000000000007c7e0        0x0 /usr/lib/gcc-cross/riscv64-linux-gnu/12/../../../../riscv64-linux-gnu/lib/libc.a(rtld_static_init.o)
 .bss           0x000000000007c7e0        0x0 /usr/lib/gcc-cross/riscv64-linux-gnu/12/../../../../riscv64-linux-gnu/lib/libc.a(lc-monetary.o)
 .bss           0x000000000007c7e0        0x0 /usr/lib/gcc-cross/riscv64-linux-gnu/12/../../../../riscv64-linux-gnu/lib/libc.a(cmp.o)
 .bss           0x000000000007c7e0        0x0 /usr/lib/gcc-cross/riscv64-linux-gnu/12/../../../../riscv64-linux-gnu/lib/libc.a(divrem.o)
 .bss           0x000000000007c7e0        0x0 /usr/lib/gcc-cross/riscv64-linux-gnu/12/../../../../riscv64-linux-gnu/lib/libc.a(lshift.o)
 .bss           0x000000000007c7e0        0x0 /usr/lib/gcc-cross/riscv64-linux-gnu/12/../../../../riscv64-linux-gnu/lib/libc.a(rshift.o)
 .bss           0x000000000007c7e0        0x0 /usr/lib/gcc-cross/riscv64-linux-gnu/12/../../../../riscv64-linux-gnu/lib/libc.a(mul.o)
 .bss           0x000000000007c7e0        0x0 /usr/lib/gcc-cross/riscv64-linux-gnu/12/../../../../riscv64-linux-gnu/lib/libc.a(mul_1.o)
 .bss           0x000000000007c7e0        0x0 /usr/lib/gcc-cross/riscv64-linux-gnu/12/../../../../riscv64-linux-gnu/lib/libc.a(mul_n.o)
 .bss           0x000000000007c7e0        0x0 /usr/lib/gcc-cross/riscv64-linux-gnu/12/../../../../riscv64-linux-gnu/lib/libc.a(sub_n.o)
 .bss           0x000000000007c7e0        0x0 /usr/lib/gcc-cross/riscv64-linux-gnu/12/../../../../riscv64-linux-gnu/lib/libc.a(submul_1.o)
 .bss           0x000000000007c7e0        0x0 /usr/lib/gcc-cross/riscv64-linux-gnu/12/../../../../riscv64-linux-gnu/lib/libc.a(dbl2mpn.o)
 .bss           0x000000000007c7e0        0x0 /usr/lib/gcc-cross/riscv64-linux-gnu/12/../../../../riscv64-linux-gnu/lib/libc.a(ldbl2mpn.o)
 .bss           0x000000000007c7e0        0x0 /usr/lib/gcc-cross/riscv64-linux-gnu/12/../../../../riscv64-linux-gnu/lib/libc.a(fpioconst.o)
 .bss           0x000000000007c7e0        0x0 /usr/lib/gcc-cross/riscv64-linux-gnu/12/../../../../riscv64-linux-gnu/lib/libc.a(mp_clz_tab.o)
 .bss           0x000000000007c7e0        0x0 /usr/lib/gcc-cross/riscv64-linux-gnu/12/../../../../riscv64-linux-gnu/lib/libc.a(dladdr.o)
 .bss           0x000000000007c7e0        0x0 /usr/lib/gcc-cross/riscv64-linux-gnu/12/../../../../riscv64-linux-gnu/lib/libc.a(dladdr1.o)
 .bss           0x000000000007c7e0        0x0 /usr/lib/gcc-cross/riscv64-linux-gnu/12/../../../../riscv64-linux-gnu/lib/libc.a(dlclose.o)
 .bss           0x000000000007c7e0        0x0 /usr/lib/gcc-cross/riscv64-linux-gnu/12/../../../../riscv64-linux-gnu/lib/libc.a(dlerror.o)
 .bss           0x000000000007c7e0        0x0 /usr/lib/gcc-cross/riscv64-linux-gnu/12/../../../../riscv64-linux-gnu/lib/libc.a(dlinfo.o)
 .bss           0x000000000007c7e0        0x0 /usr/lib/gcc-cross/riscv64-linux-gnu/12/../../../../riscv64-linux-gnu/lib/libc.a(dlmopen.o)
 .bss           0x000000000007c7e0        0x0 /usr/lib/gcc-cross/riscv64-linux-gnu/12/../../../../riscv64-linux-gnu/lib/libc.a(dlopen.o)
 .bss           0x000000000007c7e0        0x0 /usr/lib/gcc-cross/riscv64-linux-gnu/12/../../../../riscv64-linux-gnu/lib/libc.a(dlsym.o)
 .bss           0x000000000007c7e0        0x0 /usr/lib/gcc-cross/riscv64-linux-gnu/12/../../../../riscv64-linux-gnu/lib/libc.a(dlvsym.o)
 .bss           0x000000000007c7e0        0x0 /usr/lib/gcc-cross/riscv64-linux-gnu/12/../../../../riscv64-linux-gnu/lib/libc.a(libc_dlerror_result.o)
 .bss           0x000000000007c7e0        0x0 /usr/lib/gcc-cross/riscv64-linux-gnu/12/../../../../riscv64-linux-gnu/lib/libc.a(setitimer.o)
 .bss           0x000000000007c7e0        0x0 /usr/lib/gcc-cross/riscv64-linux-gnu/12/../../../../riscv64-linux-gnu/lib/libc.a(dl-call-libc-early-init.o)
 .bss           0x000000000007c7e0        0x0 /usr/lib/gcc-cross/riscv64-linux-gnu/12/../../../../riscv64-linux-gnu/lib/libc.a(dl-deps.o)
 .bss           0x000000000007c7e0        0x0 /usr/lib/gcc-cross/riscv64-linux-gnu/12/../../../../riscv64-linux-gnu/lib/libc.a(dl-init.o)
 .bss           0x000000000007c7e0        0x0 /usr/lib/gcc-cross/riscv64-linux-gnu/12/../../../../riscv64-linux-gnu/lib/libc.a(dl-lookup-direct.o)
 .bss           0x000000000007c7e0        0x0 /usr/lib/gcc-cross/riscv64-linux-gnu/12/../../../../riscv64-linux-gnu/lib/libc.a(dl-addr.o)
 .bss           0x000000000007c7e0        0x0 /usr/lib/gcc-cross/riscv64-linux-gnu/12/../../../../riscv64-linux-gnu/lib/libc.a(dl-sym.o)
 .bss           0x000000000007c7e0        0x0 /usr/lib/gcc-cross/riscv64-linux-gnu/12/../../../../riscv64-linux-gnu/lib/libc.a(add_n.o)
 .bss           0x000000000007c7e0        0x0 /usr/lib/gcc-cross/riscv64-linux-gnu/12/../../../../riscv64-linux-gnu/lib/libc.a(addmul_1.o)
 .bss           0x000000000007c7e0        0x0 /usr/lib/gcc-cross/riscv64-linux-gnu/12/libgcc.a(_ctzsi2.o)
 .bss           0x000000000007c7e0        0x0 /usr/lib/gcc-cross/riscv64-linux-gnu/12/libgcc.a(_bswapsi2.o)
 .bss           0x000000000007c7e0        0x0 /usr/lib/gcc-cross/riscv64-linux-gnu/12/libgcc.a(letf2.o)
 .bss           0x000000000007c7e0        0x0 /usr/lib/gcc-cross/riscv64-linux-gnu/12/libgcc.a(unordtf2.o)
 .bss           0x000000000007c7e0       0x48 /usr/lib/gcc-cross/riscv64-linux-gnu/12/libgcc_eh.a(unwind-dw2.o)
 .bss           0x000000000007c828       0x48 /usr/lib/gcc-cross/riscv64-linux-gnu/12/libgcc_eh.a(unwind-dw2-fde-dip.o)
 .bss           0x000000000007c870        0x0 /usr/lib/gcc-cross/riscv64-linux-gnu/12/libgcc_eh.a(unwind-c.o)
 .bss           0x000000000007c870        0x0 /usr/lib/gcc-cross/riscv64-linux-gnu/12/crtend.o
 .bss           0x000000000007c870        0x0 /usr/lib/gcc-cross/riscv64-linux-gnu/12/crtn.o
 *(COMMON)
                0x000000000007c870                . = ALIGN ((. != 0x0)?0x8:0x1)

__libc_freeres_ptrs
                0x000000000007c870       0x20
 __libc_freeres_ptrs
                0x000000000007c870       0x10 /usr/lib/gcc-cross/riscv64-linux-gnu/12/../../../../riscv64-linux-gnu/lib/libc.a(localealias.o)
 __libc_freeres_ptrs
                0x000000000007c880        0x8 /usr/lib/gcc-cross/riscv64-linux-gnu/12/../../../../riscv64-linux-gnu/lib/libc.a(reg-printf.o)
                0x000000000007c880                __printf_arginfo_table
 __libc_freeres_ptrs
                0x000000000007c888        0x8 /usr/lib/gcc-cross/riscv64-linux-gnu/12/../../../../riscv64-linux-gnu/lib/libc.a(reg-type.o)
                0x000000000007c888                __printf_va_arg_table
                0x000000000007c890                . = ALIGN (0x8)
                0x000000000007c890                . = SEGMENT_START ("ldata-segment", .)
                0x000000000007c890                . = ALIGN (0x8)
                0x000000000007c890                __BSS_END__ = .
                0x0000000000077bb8                __global_pointer$ = MIN ((__SDATA_BEGIN__ + 0x800), MAX ((__DATA_BEGIN__ + 0x800), (__BSS_END__ - 0x800)))
                0x000000000007c890                _end = .
                [!provide]                        PROVIDE (end = .)
                0x000000000007c890                . = DATA_SEGMENT_END (.)

.stab
 *(.stab)

.stabstr
 *(.stabstr)

.stab.excl
 *(.stab.excl)

.stab.exclstr
 *(.stab.exclstr)

.stab.index
 *(.stab.index)

.stab.indexstr
 *(.stab.indexstr)

.comment        0x0000000000000000       0x2b
 *(.comment)
 .comment       0x0000000000000000       0x2b /usr/lib/gcc-cross/riscv64-linux-gnu/12/crtbeginT.o
                                         0x2c (size before relaxing)
 .comment       0x000000000000002b       0x2c sum.elf-sum.o
 .comment       0x000000000000002b       0x2c /usr/lib/gcc-cross/riscv64-linux-gnu/12/crtend.o

.riscv.attributes
                0x0000000000000000       0x4e
 .riscv.attributes
                0x0000000000000000       0x33 /usr/lib/gcc-cross/riscv64-linux-gnu/12/../../../../riscv64-linux-gnu/lib/crt1.o
 .riscv.attributes
                0x0000000000000033       0x48 /usr/lib/gcc-cross/riscv64-linux-gnu/12/crti.o
 .riscv.attributes
                0x000000000000007b       0x4a /usr/lib/gcc-cross/riscv64-linux-gnu/12/crtbeginT.o
 .riscv.attributes
                0x00000000000000c5       0x4a sum.elf-sum.o
 .riscv.attributes
                0x000000000000010f       0x33 /usr/lib/gcc-cross/riscv64-linux-gnu/12/../../../../riscv64-linux-gnu/lib/libc.a(libc-start.o)
 .riscv.attributes
                0x0000000000000142       0x33 /usr/lib/gcc-cross/riscv64-linux-gnu/12/../../../../riscv64-linux-gnu/lib/libc.a(check_fds.o)
 .riscv.attributes
                0x0000000000000175       0x33 /usr/lib/gcc-cross/riscv64-linux-gnu/12/../../../../riscv64-linux-gnu/lib/libc.a(libc-tls.o)
 .riscv.attributes
                0x00000000000001a8       0x33 /usr/lib/gcc-cross/riscv64-linux-gnu/12/../../../../riscv64-linux-gnu/lib/libc.a(errno.o)
 .riscv.attributes
                0x00000000000001db       0x33 /usr/lib/gcc-cross/riscv64-linux-gnu/12/../../../../riscv64-linux-gnu/lib/libc.a(assert.o)
 .riscv.attributes
                0x000000000000020e       0x33 /usr/lib/gcc-cross/riscv64-linux-gnu/12/../../../../riscv64-linux-gnu/lib/libc.a(dcgettext.o)
 .riscv.attributes
                0x0000000000000241       0x33 /usr/lib/gcc-cross/riscv64-linux-gnu/12/../../../../riscv64-linux-gnu/lib/libc.a(dcigettext.o)
 .riscv.attributes
                0x0000000000000274       0x33 /usr/lib/gcc-cross/riscv64-linux-gnu/12/../../../../riscv64-linux-gnu/lib/libc.a(finddomain.o)
 .riscv.attributes
                0x00000000000002a7       0x33 /usr/lib/gcc-cross/riscv64-linux-gnu/12/../../../../riscv64-linux-gnu/lib/libc.a(loadmsgcat.o)
 .riscv.attributes
                0x00000000000002da       0x33 /usr/lib/gcc-cross/riscv64-linux-gnu/12/../../../../riscv64-linux-gnu/lib/libc.a(localealias.o)
 .riscv.attributes
                0x000000000000030d       0x33 /usr/lib/gcc-cross/riscv64-linux-gnu/12/../../../../riscv64-linux-gnu/lib/libc.a(l10nflist.o)
 .riscv.attributes
                0x0000000000000340       0x33 /usr/lib/gcc-cross/riscv64-linux-gnu/12/../../../../riscv64-linux-gnu/lib/libc.a(explodename.o)
 .riscv.attributes
                0x0000000000000373       0x33 /usr/lib/gcc-cross/riscv64-linux-gnu/12/../../../../riscv64-linux-gnu/lib/libc.a(plural.o)
 .riscv.attributes
                0x00000000000003a6       0x33 /usr/lib/gcc-cross/riscv64-linux-gnu/12/../../../../riscv64-linux-gnu/lib/libc.a(plural-exp.o)
 .riscv.attributes
                0x00000000000003d9       0x33 /usr/lib/gcc-cross/riscv64-linux-gnu/12/../../../../riscv64-linux-gnu/lib/libc.a(hash-string.o)
 .riscv.attributes
                0x000000000000040c       0x33 /usr/lib/gcc-cross/riscv64-linux-gnu/12/../../../../riscv64-linux-gnu/lib/libc.a(setjmp.o)
 .riscv.attributes
                0x000000000000043f       0x33 /usr/lib/gcc-cross/riscv64-linux-gnu/12/../../../../riscv64-linux-gnu/lib/libc.a(sigjmp.o)
 .riscv.attributes
                0x0000000000000472       0x33 /usr/lib/gcc-cross/riscv64-linux-gnu/12/../../../../riscv64-linux-gnu/lib/libc.a(raise.o)
 .riscv.attributes
                0x00000000000004a5       0x33 /usr/lib/gcc-cross/riscv64-linux-gnu/12/../../../../riscv64-linux-gnu/lib/libc.a(sigprocmask.o)
 .riscv.attributes
                0x00000000000004d8       0x33 /usr/lib/gcc-cross/riscv64-linux-gnu/12/../../../../riscv64-linux-gnu/lib/libc.a(abort.o)
 .riscv.attributes
                0x000000000000050b       0x33 /usr/lib/gcc-cross/riscv64-linux-gnu/12/../../../../riscv64-linux-gnu/lib/libc.a(msort.o)
 .riscv.attributes
                0x000000000000053e       0x33 /usr/lib/gcc-cross/riscv64-linux-gnu/12/../../../../riscv64-linux-gnu/lib/libc.a(getenv.o)
 .riscv.attributes
                0x0000000000000571       0x33 /usr/lib/gcc-cross/riscv64-linux-gnu/12/../../../../riscv64-linux-gnu/lib/libc.a(exit.o)
 .riscv.attributes
                0x00000000000005a4       0x33 /usr/lib/gcc-cross/riscv64-linux-gnu/12/../../../../riscv64-linux-gnu/lib/libc.a(cxa_atexit.o)
 .riscv.attributes
                0x00000000000005d7       0x33 /usr/lib/gcc-cross/riscv64-linux-gnu/12/../../../../riscv64-linux-gnu/lib/libc.a(strtoul.o)
 .riscv.attributes
                0x000000000000060a       0x33 /usr/lib/gcc-cross/riscv64-linux-gnu/12/../../../../riscv64-linux-gnu/lib/libc.a(strtoul_l.o)
 .riscv.attributes
                0x000000000000063d       0x33 /usr/lib/gcc-cross/riscv64-linux-gnu/12/../../../../riscv64-linux-gnu/lib/libc.a(grouping.o)
 .riscv.attributes
                0x0000000000000670       0x33 /usr/lib/gcc-cross/riscv64-linux-gnu/12/../../../../riscv64-linux-gnu/lib/libc.a(asprintf.o)
 .riscv.attributes
                0x00000000000006a3       0x33 /usr/lib/gcc-cross/riscv64-linux-gnu/12/../../../../riscv64-linux-gnu/lib/libc.a(fxprintf.o)
 .riscv.attributes
                0x00000000000006d6       0x33 /usr/lib/gcc-cross/riscv64-linux-gnu/12/../../../../riscv64-linux-gnu/lib/libc.a(iofclose.o)
 .riscv.attributes
                0x0000000000000709       0x33 /usr/lib/gcc-cross/riscv64-linux-gnu/12/../../../../riscv64-linux-gnu/lib/libc.a(iofflush.o)
 .riscv.attributes
                0x000000000000073c       0x33 /usr/lib/gcc-cross/riscv64-linux-gnu/12/../../../../riscv64-linux-gnu/lib/libc.a(iofopen.o)
 .riscv.attributes
                0x000000000000076f       0x33 /usr/lib/gcc-cross/riscv64-linux-gnu/12/../../../../riscv64-linux-gnu/lib/libc.a(wfileops.o)
 .riscv.attributes
                0x00000000000007a2       0x33 /usr/lib/gcc-cross/riscv64-linux-gnu/12/../../../../riscv64-linux-gnu/lib/libc.a(iofwide.o)
 .riscv.attributes
                0x00000000000007d5       0x33 /usr/lib/gcc-cross/riscv64-linux-gnu/12/../../../../riscv64-linux-gnu/lib/libc.a(vasprintf.o)
 .riscv.attributes
                0x0000000000000808       0x33 /usr/lib/gcc-cross/riscv64-linux-gnu/12/../../../../riscv64-linux-gnu/lib/libc.a(libc_fatal.o)
 .riscv.attributes
                0x000000000000083b       0x33 /usr/lib/gcc-cross/riscv64-linux-gnu/12/../../../../riscv64-linux-gnu/lib/libc.a(vtables.o)
 .riscv.attributes
                0x000000000000086e       0x33 /usr/lib/gcc-cross/riscv64-linux-gnu/12/../../../../riscv64-linux-gnu/lib/libc.a(iofgets_u.o)
 .riscv.attributes
                0x00000000000008a1       0x33 /usr/lib/gcc-cross/riscv64-linux-gnu/12/../../../../riscv64-linux-gnu/lib/libc.a(fileops.o)
 .riscv.attributes
                0x00000000000008d4       0x33 /usr/lib/gcc-cross/riscv64-linux-gnu/12/../../../../riscv64-linux-gnu/lib/libc.a(genops.o)
 .riscv.attributes
                0x0000000000000907       0x33 /usr/lib/gcc-cross/riscv64-linux-gnu/12/../../../../riscv64-linux-gnu/lib/libc.a(stdfiles.o)
 .riscv.attributes
                0x000000000000093a       0x33 /usr/lib/gcc-cross/riscv64-linux-gnu/12/../../../../riscv64-linux-gnu/lib/libc.a(stdio.o)
 .riscv.attributes
                0x000000000000096d       0x33 /usr/lib/gcc-cross/riscv64-linux-gnu/12/../../../../riscv64-linux-gnu/lib/libc.a(strops.o)
 .riscv.attributes
                0x00000000000009a0       0x33 /usr/lib/gcc-cross/riscv64-linux-gnu/12/../../../../riscv64-linux-gnu/lib/libc.a(alloca_cutoff.o)
 .riscv.attributes
                0x00000000000009d3       0x33 /usr/lib/gcc-cross/riscv64-linux-gnu/12/../../../../riscv64-linux-gnu/lib/libc.a(libc-cleanup.o)
 .riscv.attributes
                0x0000000000000a06       0x33 /usr/lib/gcc-cross/riscv64-linux-gnu/12/../../../../riscv64-linux-gnu/lib/libc.a(lowlevellock.o)
 .riscv.attributes
                0x0000000000000a39       0x33 /usr/lib/gcc-cross/riscv64-linux-gnu/12/../../../../riscv64-linux-gnu/lib/libc.a(nptl_deallocate_tsd.o)
 .riscv.attributes
                0x0000000000000a6c       0x33 /usr/lib/gcc-cross/riscv64-linux-gnu/12/../../../../riscv64-linux-gnu/lib/libc.a(nptl_nthreads.o)
 .riscv.attributes
                0x0000000000000a9f       0x33 /usr/lib/gcc-cross/riscv64-linux-gnu/12/../../../../riscv64-linux-gnu/lib/libc.a(pthread_keys.o)
 .riscv.attributes
                0x0000000000000ad2       0x33 /usr/lib/gcc-cross/riscv64-linux-gnu/12/../../../../riscv64-linux-gnu/lib/libc.a(pthread_kill.o)
 .riscv.attributes
                0x0000000000000b05       0x33 /usr/lib/gcc-cross/riscv64-linux-gnu/12/../../../../riscv64-linux-gnu/lib/libc.a(pthread_rwlock_init.o)
 .riscv.attributes
                0x0000000000000b38       0x33 /usr/lib/gcc-cross/riscv64-linux-gnu/12/../../../../riscv64-linux-gnu/lib/libc.a(pthread_rwlock_rdlock.o)
 .riscv.attributes
                0x0000000000000b6b       0x33 /usr/lib/gcc-cross/riscv64-linux-gnu/12/../../../../riscv64-linux-gnu/lib/libc.a(pthread_rwlock_unlock.o)
 .riscv.attributes
                0x0000000000000b9e       0x33 /usr/lib/gcc-cross/riscv64-linux-gnu/12/../../../../riscv64-linux-gnu/lib/libc.a(pthread_rwlock_wrlock.o)
 .riscv.attributes
                0x0000000000000bd1       0x33 /usr/lib/gcc-cross/riscv64-linux-gnu/12/../../../../riscv64-linux-gnu/lib/libc.a(pthread_self.o)
 .riscv.attributes
                0x0000000000000c04       0x33 /usr/lib/gcc-cross/riscv64-linux-gnu/12/../../../../riscv64-linux-gnu/lib/libc.a(pthread_setcancelstate.o)
 .riscv.attributes
                0x0000000000000c37       0x33 /usr/lib/gcc-cross/riscv64-linux-gnu/12/../../../../riscv64-linux-gnu/lib/libc.a(pthread_sigmask.o)
 .riscv.attributes
                0x0000000000000c6a       0x33 /usr/lib/gcc-cross/riscv64-linux-gnu/12/../../../../riscv64-linux-gnu/lib/libc.a(pthread_testcancel.o)
 .riscv.attributes
                0x0000000000000c9d       0x33 /usr/lib/gcc-cross/riscv64-linux-gnu/12/../../../../riscv64-linux-gnu/lib/libc.a(malloc.o)
 .riscv.attributes
                0x0000000000000cd0       0x33 /usr/lib/gcc-cross/riscv64-linux-gnu/12/../../../../riscv64-linux-gnu/lib/libc.a(strchr.o)
 .riscv.attributes
                0x0000000000000d03       0x33 /usr/lib/gcc-cross/riscv64-linux-gnu/12/../../../../riscv64-linux-gnu/lib/libc.a(strcmp.o)
 .riscv.attributes
                0x0000000000000d36       0x33 /usr/lib/gcc-cross/riscv64-linux-gnu/12/../../../../riscv64-linux-gnu/lib/libc.a(strcpy.o)
 .riscv.attributes
                0x0000000000000d69       0x33 /usr/lib/gcc-cross/riscv64-linux-gnu/12/../../../../riscv64-linux-gnu/lib/libc.a(strcspn.o)
 .riscv.attributes
                0x0000000000000d9c       0x33 /usr/lib/gcc-cross/riscv64-linux-gnu/12/../../../../riscv64-linux-gnu/lib/libc.a(strdup.o)
 .riscv.attributes
                0x0000000000000dcf       0x33 /usr/lib/gcc-cross/riscv64-linux-gnu/12/../../../../riscv64-linux-gnu/lib/libc.a(strlen.o)
 .riscv.attributes
                0x0000000000000e02       0x33 /usr/lib/gcc-cross/riscv64-linux-gnu/12/../../../../riscv64-linux-gnu/lib/libc.a(strncmp.o)
 .riscv.attributes
                0x0000000000000e35       0x33 /usr/lib/gcc-cross/riscv64-linux-gnu/12/../../../../riscv64-linux-gnu/lib/libc.a(strstr.o)
 .riscv.attributes
                0x0000000000000e68       0x33 /usr/lib/gcc-cross/riscv64-linux-gnu/12/../../../../riscv64-linux-gnu/lib/libc.a(memcmp.o)
 .riscv.attributes
                0x0000000000000e9b       0x33 /usr/lib/gcc-cross/riscv64-linux-gnu/12/../../../../riscv64-linux-gnu/lib/libc.a(memmove.o)
 .riscv.attributes
                0x0000000000000ece       0x33 /usr/lib/gcc-cross/riscv64-linux-gnu/12/../../../../riscv64-linux-gnu/lib/libc.a(memset.o)
 .riscv.attributes
                0x0000000000000f01       0x33 /usr/lib/gcc-cross/riscv64-linux-gnu/12/../../../../riscv64-linux-gnu/lib/libc.a(stpcpy.o)
 .riscv.attributes
                0x0000000000000f34       0x33 /usr/lib/gcc-cross/riscv64-linux-gnu/12/../../../../riscv64-linux-gnu/lib/libc.a(strcasecmp_l.o)
 .riscv.attributes
                0x0000000000000f67       0x33 /usr/lib/gcc-cross/riscv64-linux-gnu/12/../../../../riscv64-linux-gnu/lib/libc.a(memcpy.o)
 .riscv.attributes
                0x0000000000000f9a       0x33 /usr/lib/gcc-cross/riscv64-linux-gnu/12/../../../../riscv64-linux-gnu/lib/libc.a(wordcopy.o)
 .riscv.attributes
                0x0000000000000fcd       0x33 /usr/lib/gcc-cross/riscv64-linux-gnu/12/../../../../riscv64-linux-gnu/lib/libc.a(rawmemchr.o)
 .riscv.attributes
                0x0000000000001000       0x33 /usr/lib/gcc-cross/riscv64-linux-gnu/12/../../../../riscv64-linux-gnu/lib/libc.a(strchrnul.o)
 .riscv.attributes
                0x0000000000001033       0x33 /usr/lib/gcc-cross/riscv64-linux-gnu/12/../../../../riscv64-linux-gnu/lib/libc.a(wmempcpy.o)
 .riscv.attributes
                0x0000000000001066       0x33 /usr/lib/gcc-cross/riscv64-linux-gnu/12/../../../../riscv64-linux-gnu/lib/libc.a(mbsrtowcs.o)
 .riscv.attributes
                0x0000000000001099       0x33 /usr/lib/gcc-cross/riscv64-linux-gnu/12/../../../../riscv64-linux-gnu/lib/libc.a(wcsmbsload.o)
 .riscv.attributes
                0x00000000000010cc       0x33 /usr/lib/gcc-cross/riscv64-linux-gnu/12/../../../../riscv64-linux-gnu/lib/libc.a(mbsrtowcs_l.o)
 .riscv.attributes
                0x00000000000010ff       0x33 /usr/lib/gcc-cross/riscv64-linux-gnu/12/../../../../riscv64-linux-gnu/lib/libc.a(clock_gettime.o)
 .riscv.attributes
                0x0000000000001132       0x33 /usr/lib/gcc-cross/riscv64-linux-gnu/12/../../../../riscv64-linux-gnu/lib/libc.a(_exit.o)
 .riscv.attributes
                0x0000000000001165       0x33 /usr/lib/gcc-cross/riscv64-linux-gnu/12/../../../../riscv64-linux-gnu/lib/libc.a(getpid.o)
 .riscv.attributes
                0x0000000000001198       0x33 /usr/lib/gcc-cross/riscv64-linux-gnu/12/../../../../riscv64-linux-gnu/lib/libc.a(sysconf.o)
 .riscv.attributes
                0x00000000000011cb       0x33 /usr/lib/gcc-cross/riscv64-linux-gnu/12/../../../../riscv64-linux-gnu/lib/libc.a(sched_yield.o)
 .riscv.attributes
                0x00000000000011fe       0x33 /usr/lib/gcc-cross/riscv64-linux-gnu/12/../../../../riscv64-linux-gnu/lib/libc.a(get_child_max.o)
 .riscv.attributes
                0x0000000000001231       0x33 /usr/lib/gcc-cross/riscv64-linux-gnu/12/../../../../riscv64-linux-gnu/lib/libc.a(environ.o)
 .riscv.attributes
                0x0000000000001264       0x33 /usr/lib/gcc-cross/riscv64-linux-gnu/12/../../../../riscv64-linux-gnu/lib/libc.a(fstat64.o)
 .riscv.attributes
                0x0000000000001297       0x33 /usr/lib/gcc-cross/riscv64-linux-gnu/12/../../../../riscv64-linux-gnu/lib/libc.a(fstatat64.o)
 .riscv.attributes
                0x00000000000012ca       0x33 /usr/lib/gcc-cross/riscv64-linux-gnu/12/../../../../riscv64-linux-gnu/lib/libc.a(open64.o)
 .riscv.attributes
                0x00000000000012fd       0x33 /usr/lib/gcc-cross/riscv64-linux-gnu/12/../../../../riscv64-linux-gnu/lib/libc.a(read.o)
 .riscv.attributes
                0x0000000000001330       0x33 /usr/lib/gcc-cross/riscv64-linux-gnu/12/../../../../riscv64-linux-gnu/lib/libc.a(write.o)
 .riscv.attributes
                0x0000000000001363       0x33 /usr/lib/gcc-cross/riscv64-linux-gnu/12/../../../../riscv64-linux-gnu/lib/libc.a(lseek64.o)
 .riscv.attributes
                0x0000000000001396       0x33 /usr/lib/gcc-cross/riscv64-linux-gnu/12/../../../../riscv64-linux-gnu/lib/libc.a(getcwd.o)
 .riscv.attributes
                0x00000000000013c9       0x33 /usr/lib/gcc-cross/riscv64-linux-gnu/12/../../../../riscv64-linux-gnu/lib/libc.a(close_nocancel.o)
 .riscv.attributes
                0x00000000000013fc       0x33 /usr/lib/gcc-cross/riscv64-linux-gnu/12/../../../../riscv64-linux-gnu/lib/libc.a(fcntl_nocancel.o)
 .riscv.attributes
                0x000000000000142f       0x33 /usr/lib/gcc-cross/riscv64-linux-gnu/12/../../../../riscv64-linux-gnu/lib/libc.a(open64_nocancel.o)
 .riscv.attributes
                0x0000000000001462       0x33 /usr/lib/gcc-cross/riscv64-linux-gnu/12/../../../../riscv64-linux-gnu/lib/libc.a(read_nocancel.o)
 .riscv.attributes
                0x0000000000001495       0x33 /usr/lib/gcc-cross/riscv64-linux-gnu/12/../../../../riscv64-linux-gnu/lib/libc.a(write_nocancel.o)
 .riscv.attributes
                0x00000000000014c8       0x33 /usr/lib/gcc-cross/riscv64-linux-gnu/12/../../../../riscv64-linux-gnu/lib/libc.a(getrlimit64.o)
 .riscv.attributes
                0x00000000000014fb       0x33 /usr/lib/gcc-cross/riscv64-linux-gnu/12/../../../../riscv64-linux-gnu/lib/libc.a(brk.o)
 .riscv.attributes
                0x000000000000152e       0x33 /usr/lib/gcc-cross/riscv64-linux-gnu/12/../../../../riscv64-linux-gnu/lib/libc.a(sbrk.o)
 .riscv.attributes
                0x0000000000001561       0x33 /usr/lib/gcc-cross/riscv64-linux-gnu/12/../../../../riscv64-linux-gnu/lib/libc.a(getpagesize.o)
 .riscv.attributes
                0x0000000000001594       0x33 /usr/lib/gcc-cross/riscv64-linux-gnu/12/../../../../riscv64-linux-gnu/lib/libc.a(getdtsz.o)
 .riscv.attributes
                0x00000000000015c7       0x33 /usr/lib/gcc-cross/riscv64-linux-gnu/12/../../../../riscv64-linux-gnu/lib/libc.a(mmap64.o)
 .riscv.attributes
                0x00000000000015fa       0x33 /usr/lib/gcc-cross/riscv64-linux-gnu/12/../../../../riscv64-linux-gnu/lib/libc.a(munmap.o)
 .riscv.attributes
                0x000000000000162d       0x33 /usr/lib/gcc-cross/riscv64-linux-gnu/12/../../../../riscv64-linux-gnu/lib/libc.a(mprotect.o)
 .riscv.attributes
                0x0000000000001660       0x33 /usr/lib/gcc-cross/riscv64-linux-gnu/12/../../../../riscv64-linux-gnu/lib/libc.a(madvise.o)
 .riscv.attributes
                0x0000000000001693       0x33 /usr/lib/gcc-cross/riscv64-linux-gnu/12/../../../../riscv64-linux-gnu/lib/libc.a(tsearch.o)
 .riscv.attributes
                0x00000000000016c6       0x33 /usr/lib/gcc-cross/riscv64-linux-gnu/12/../../../../riscv64-linux-gnu/lib/libc.a(getsysstats.o)
 .riscv.attributes
                0x00000000000016f9       0x33 /usr/lib/gcc-cross/riscv64-linux-gnu/12/../../../../riscv64-linux-gnu/lib/libc.a(getclktck.o)
 .riscv.attributes
                0x000000000000172c       0x33 /usr/lib/gcc-cross/riscv64-linux-gnu/12/../../../../riscv64-linux-gnu/lib/libc.a(getauxval.o)
 .riscv.attributes
                0x000000000000175f       0x33 /usr/lib/gcc-cross/riscv64-linux-gnu/12/../../../../riscv64-linux-gnu/lib/libc.a(init-misc.o)
 .riscv.attributes
                0x0000000000001792       0x33 /usr/lib/gcc-cross/riscv64-linux-gnu/12/../../../../riscv64-linux-gnu/lib/libc.a(mremap.o)
 .riscv.attributes
                0x00000000000017c5       0x33 /usr/lib/gcc-cross/riscv64-linux-gnu/12/../../../../riscv64-linux-gnu/lib/libc.a(sysinfo.o)
 .riscv.attributes
                0x00000000000017f8       0x33 /usr/lib/gcc-cross/riscv64-linux-gnu/12/../../../../riscv64-linux-gnu/lib/libc.a(malloc-hugepages.o)
 .riscv.attributes
                0x000000000000182b       0x33 /usr/lib/gcc-cross/riscv64-linux-gnu/12/../../../../riscv64-linux-gnu/lib/libc.a(stack_chk_fail.o)
 .riscv.attributes
                0x000000000000185e       0x33 /usr/lib/gcc-cross/riscv64-linux-gnu/12/../../../../riscv64-linux-gnu/lib/libc.a(fortify_fail.o)
 .riscv.attributes
                0x0000000000001891       0x33 /usr/lib/gcc-cross/riscv64-linux-gnu/12/../../../../riscv64-linux-gnu/lib/libc.a(dl-debug.o)
 .riscv.attributes
                0x00000000000018c4       0x33 /usr/lib/gcc-cross/riscv64-linux-gnu/12/../../../../riscv64-linux-gnu/lib/libc.a(dl-debug-symbols.o)
 .riscv.attributes
                0x00000000000018f7       0x33 /usr/lib/gcc-cross/riscv64-linux-gnu/12/../../../../riscv64-linux-gnu/lib/libc.a(dl-tls.o)
 .riscv.attributes
                0x000000000000192a       0x33 /usr/lib/gcc-cross/riscv64-linux-gnu/12/../../../../riscv64-linux-gnu/lib/libc.a(dl-tls_init_tp.o)
 .riscv.attributes
                0x000000000000195d       0x33 /usr/lib/gcc-cross/riscv64-linux-gnu/12/../../../../riscv64-linux-gnu/lib/libc.a(dl-tunables.o)
 .riscv.attributes
                0x0000000000001990       0x33 /usr/lib/gcc-cross/riscv64-linux-gnu/12/../../../../riscv64-linux-gnu/lib/libc.a(dl-error.o)
 .riscv.attributes
                0x00000000000019c3       0x33 /usr/lib/gcc-cross/riscv64-linux-gnu/12/../../../../riscv64-linux-gnu/lib/libc.a(dl-profstub.o)
 .riscv.attributes
                0x00000000000019f6       0x33 /usr/lib/gcc-cross/riscv64-linux-gnu/12/../../../../riscv64-linux-gnu/lib/libc.a(dl-support.o)
 .riscv.attributes
                0x0000000000001a29       0x33 /usr/lib/gcc-cross/riscv64-linux-gnu/12/../../../../riscv64-linux-gnu/lib/libc.a(dl-sysdep.o)
 .riscv.attributes
                0x0000000000001a5c       0x33 /usr/lib/gcc-cross/riscv64-linux-gnu/12/../../../../riscv64-linux-gnu/lib/libc.a(enbl-secure.o)
 .riscv.attributes
                0x0000000000001a8f       0x33 /usr/lib/gcc-cross/riscv64-linux-gnu/12/../../../../riscv64-linux-gnu/lib/libc.a(libc_early_init.o)
 .riscv.attributes
                0x0000000000001ac2       0x33 /usr/lib/gcc-cross/riscv64-linux-gnu/12/../../../../riscv64-linux-gnu/lib/libc.a(init-first.o)
 .riscv.attributes
                0x0000000000001af5       0x33 /usr/lib/gcc-cross/riscv64-linux-gnu/12/../../../../riscv64-linux-gnu/lib/libc.a(sysdep.o)
 .riscv.attributes
                0x0000000000001b28       0x33 /usr/lib/gcc-cross/riscv64-linux-gnu/12/../../../../riscv64-linux-gnu/lib/libc.a(gconv_open.o)
 .riscv.attributes
                0x0000000000001b5b       0x33 /usr/lib/gcc-cross/riscv64-linux-gnu/12/../../../../riscv64-linux-gnu/lib/libc.a(gconv.o)
 .riscv.attributes
                0x0000000000001b8e       0x33 /usr/lib/gcc-cross/riscv64-linux-gnu/12/../../../../riscv64-linux-gnu/lib/libc.a(gconv_close.o)
 .riscv.attributes
                0x0000000000001bc1       0x33 /usr/lib/gcc-cross/riscv64-linux-gnu/12/../../../../riscv64-linux-gnu/lib/libc.a(gconv_db.o)
 .riscv.attributes
                0x0000000000001bf4       0x33 /usr/lib/gcc-cross/riscv64-linux-gnu/12/../../../../riscv64-linux-gnu/lib/libc.a(gconv_conf.o)
 .riscv.attributes
                0x0000000000001c27       0x33 /usr/lib/gcc-cross/riscv64-linux-gnu/12/../../../../riscv64-linux-gnu/lib/libc.a(gconv_builtin.o)
 .riscv.attributes
                0x0000000000001c5a       0x33 /usr/lib/gcc-cross/riscv64-linux-gnu/12/../../../../riscv64-linux-gnu/lib/libc.a(gconv_simple.o)
 .riscv.attributes
                0x0000000000001c8d       0x33 /usr/lib/gcc-cross/riscv64-linux-gnu/12/../../../../riscv64-linux-gnu/lib/libc.a(gconv_trans.o)
 .riscv.attributes
                0x0000000000001cc0       0x33 /usr/lib/gcc-cross/riscv64-linux-gnu/12/../../../../riscv64-linux-gnu/lib/libc.a(gconv_cache.o)
 .riscv.attributes
                0x0000000000001cf3       0x33 /usr/lib/gcc-cross/riscv64-linux-gnu/12/../../../../riscv64-linux-gnu/lib/libc.a(gconv_dl.o)
 .riscv.attributes
                0x0000000000001d26       0x33 /usr/lib/gcc-cross/riscv64-linux-gnu/12/../../../../riscv64-linux-gnu/lib/libc.a(gconv_charset.o)
 .riscv.attributes
                0x0000000000001d59       0x33 /usr/lib/gcc-cross/riscv64-linux-gnu/12/../../../../riscv64-linux-gnu/lib/libc.a(setlocale.o)
 .riscv.attributes
                0x0000000000001d8c       0x33 /usr/lib/gcc-cross/riscv64-linux-gnu/12/../../../../riscv64-linux-gnu/lib/libc.a(findlocale.o)
 .riscv.attributes
                0x0000000000001dbf       0x33 /usr/lib/gcc-cross/riscv64-linux-gnu/12/../../../../riscv64-linux-gnu/lib/libc.a(loadlocale.o)
 .riscv.attributes
                0x0000000000001df2       0x33 /usr/lib/gcc-cross/riscv64-linux-gnu/12/../../../../riscv64-linux-gnu/lib/libc.a(loadarchive.o)
 .riscv.attributes
                0x0000000000001e25       0x33 /usr/lib/gcc-cross/riscv64-linux-gnu/12/../../../../riscv64-linux-gnu/lib/libc.a(lc-ctype.o)
 .riscv.attributes
                0x0000000000001e58       0x33 /usr/lib/gcc-cross/riscv64-linux-gnu/12/../../../../riscv64-linux-gnu/lib/libc.a(C-ctype.o)
 .riscv.attributes
                0x0000000000001e8b       0x33 /usr/lib/gcc-cross/riscv64-linux-gnu/12/../../../../riscv64-linux-gnu/lib/libc.a(SYS_libc.o)
 .riscv.attributes
                0x0000000000001ebe       0x33 /usr/lib/gcc-cross/riscv64-linux-gnu/12/../../../../riscv64-linux-gnu/lib/libc.a(C_name.o)
 .riscv.attributes
                0x0000000000001ef1       0x33 /usr/lib/gcc-cross/riscv64-linux-gnu/12/../../../../riscv64-linux-gnu/lib/libc.a(xlocale.o)
 .riscv.attributes
                0x0000000000001f24       0x33 /usr/lib/gcc-cross/riscv64-linux-gnu/12/../../../../riscv64-linux-gnu/lib/libc.a(localename.o)
 .riscv.attributes
                0x0000000000001f57       0x33 /usr/lib/gcc-cross/riscv64-linux-gnu/12/../../../../riscv64-linux-gnu/lib/libc.a(global-locale.o)
 .riscv.attributes
                0x0000000000001f8a       0x33 /usr/lib/gcc-cross/riscv64-linux-gnu/12/../../../../riscv64-linux-gnu/lib/libc.a(ctype-info.o)
 .riscv.attributes
                0x0000000000001fbd       0x33 /usr/lib/gcc-cross/riscv64-linux-gnu/12/../../../../riscv64-linux-gnu/lib/libc.a(__longjmp.o)
 .riscv.attributes
                0x0000000000001ff0       0x33 /usr/lib/gcc-cross/riscv64-linux-gnu/12/../../../../riscv64-linux-gnu/lib/libc.a(sigaction.o)
 .riscv.attributes
                0x0000000000002023       0x33 /usr/lib/gcc-cross/riscv64-linux-gnu/12/../../../../riscv64-linux-gnu/lib/libc.a(libc_sigaction.o)
 .riscv.attributes
                0x0000000000002056       0x33 /usr/lib/gcc-cross/riscv64-linux-gnu/12/../../../../riscv64-linux-gnu/lib/libc.a(qsort.o)
 .riscv.attributes
                0x0000000000002089       0x33 /usr/lib/gcc-cross/riscv64-linux-gnu/12/../../../../riscv64-linux-gnu/lib/libc.a(setenv.o)
 .riscv.attributes
                0x00000000000020bc       0x33 /usr/lib/gcc-cross/riscv64-linux-gnu/12/../../../../riscv64-linux-gnu/lib/libc.a(getrandom.o)
 .riscv.attributes
                0x00000000000020ef       0x33 /usr/lib/gcc-cross/riscv64-linux-gnu/12/../../../../riscv64-linux-gnu/lib/libc.a(strtol.o)
 .riscv.attributes
                0x0000000000002122       0x33 /usr/lib/gcc-cross/riscv64-linux-gnu/12/../../../../riscv64-linux-gnu/lib/libc.a(strtol_l.o)
 .riscv.attributes
                0x0000000000002155       0x33 /usr/lib/gcc-cross/riscv64-linux-gnu/12/../../../../riscv64-linux-gnu/lib/libc.a(fprintf.o)
 .riscv.attributes
                0x0000000000002188       0x33 /usr/lib/gcc-cross/riscv64-linux-gnu/12/../../../../riscv64-linux-gnu/lib/libc.a(vfprintf-internal.o)
 .riscv.attributes
                0x00000000000021bb       0x33 /usr/lib/gcc-cross/riscv64-linux-gnu/12/../../../../riscv64-linux-gnu/lib/libc.a(vfwprintf-internal.o)
 .riscv.attributes
                0x00000000000021ee       0x33 /usr/lib/gcc-cross/riscv64-linux-gnu/12/../../../../riscv64-linux-gnu/lib/libc.a(errlist.o)
 .riscv.attributes
                0x0000000000002221       0x33 /usr/lib/gcc-cross/riscv64-linux-gnu/12/../../../../riscv64-linux-gnu/lib/libc.a(printf-parsemb.o)
 .riscv.attributes
                0x0000000000002254       0x33 /usr/lib/gcc-cross/riscv64-linux-gnu/12/../../../../riscv64-linux-gnu/lib/libc.a(printf-parsewc.o)
 .riscv.attributes
                0x0000000000002287       0x33 /usr/lib/gcc-cross/riscv64-linux-gnu/12/../../../../riscv64-linux-gnu/lib/libc.a(filedoalloc.o)
 .riscv.attributes
                0x00000000000022ba       0x33 /usr/lib/gcc-cross/riscv64-linux-gnu/12/../../../../riscv64-linux-gnu/lib/libc.a(iofputs.o)
 .riscv.attributes
                0x00000000000022ed       0x33 /usr/lib/gcc-cross/riscv64-linux-gnu/12/../../../../riscv64-linux-gnu/lib/libc.a(wfiledoalloc.o)
 .riscv.attributes
                0x0000000000002320       0x33 /usr/lib/gcc-cross/riscv64-linux-gnu/12/../../../../riscv64-linux-gnu/lib/libc.a(iofwrite.o)
 .riscv.attributes
                0x0000000000002353       0x33 /usr/lib/gcc-cross/riscv64-linux-gnu/12/../../../../riscv64-linux-gnu/lib/libc.a(iogetdelim.o)
 .riscv.attributes
                0x0000000000002386       0x33 /usr/lib/gcc-cross/riscv64-linux-gnu/12/../../../../riscv64-linux-gnu/lib/libc.a(iogetline.o)
 .riscv.attributes
                0x00000000000023b9       0x33 /usr/lib/gcc-cross/riscv64-linux-gnu/12/../../../../riscv64-linux-gnu/lib/libc.a(iopadn.o)
 .riscv.attributes
                0x00000000000023ec       0x33 /usr/lib/gcc-cross/riscv64-linux-gnu/12/../../../../riscv64-linux-gnu/lib/libc.a(iowpadn.o)
 .riscv.attributes
                0x000000000000241f       0x33 /usr/lib/gcc-cross/riscv64-linux-gnu/12/../../../../riscv64-linux-gnu/lib/libc.a(wgenops.o)
 .riscv.attributes
                0x0000000000002452       0x33 /usr/lib/gcc-cross/riscv64-linux-gnu/12/../../../../riscv64-linux-gnu/lib/libc.a(cancellation.o)
 .riscv.attributes
                0x0000000000002485       0x33 /usr/lib/gcc-cross/riscv64-linux-gnu/12/../../../../riscv64-linux-gnu/lib/libc.a(futex-internal.o)
 .riscv.attributes
                0x00000000000024b8       0x33 /usr/lib/gcc-cross/riscv64-linux-gnu/12/../../../../riscv64-linux-gnu/lib/libc.a(pthread_mutex_conf.o)
 .riscv.attributes
                0x00000000000024eb       0x33 /usr/lib/gcc-cross/riscv64-linux-gnu/12/../../../../riscv64-linux-gnu/lib/libc.a(pthread_mutex_lock.o)
 .riscv.attributes
                0x000000000000251e       0x33 /usr/lib/gcc-cross/riscv64-linux-gnu/12/../../../../riscv64-linux-gnu/lib/libc.a(pthread_mutex_unlock.o)
 .riscv.attributes
                0x0000000000002551       0x33 /usr/lib/gcc-cross/riscv64-linux-gnu/12/../../../../riscv64-linux-gnu/lib/libc.a(pthread_once.o)
 .riscv.attributes
                0x0000000000002584       0x33 /usr/lib/gcc-cross/riscv64-linux-gnu/12/../../../../riscv64-linux-gnu/lib/libc.a(tpp.o)
 .riscv.attributes
                0x00000000000025b7       0x33 /usr/lib/gcc-cross/riscv64-linux-gnu/12/../../../../riscv64-linux-gnu/lib/libc.a(vars.o)
 .riscv.attributes
                0x00000000000025ea       0x33 /usr/lib/gcc-cross/riscv64-linux-gnu/12/../../../../riscv64-linux-gnu/lib/libc.a(scratch_buffer_grow_preserve.o)
 .riscv.attributes
                0x000000000000261d       0x33 /usr/lib/gcc-cross/riscv64-linux-gnu/12/../../../../riscv64-linux-gnu/lib/libc.a(scratch_buffer_set_array_size.o)
 .riscv.attributes
                0x0000000000002650       0x33 /usr/lib/gcc-cross/riscv64-linux-gnu/12/../../../../riscv64-linux-gnu/lib/libc.a(strndup.o)
 .riscv.attributes
                0x0000000000002683       0x33 /usr/lib/gcc-cross/riscv64-linux-gnu/12/../../../../riscv64-linux-gnu/lib/libc.a(_strerror.o)
 .riscv.attributes
                0x00000000000026b6       0x33 /usr/lib/gcc-cross/riscv64-linux-gnu/12/../../../../riscv64-linux-gnu/lib/libc.a(strnlen.o)
 .riscv.attributes
                0x00000000000026e9       0x33 /usr/lib/gcc-cross/riscv64-linux-gnu/12/../../../../riscv64-linux-gnu/lib/libc.a(strrchr.o)
 .riscv.attributes
                0x000000000000271c       0x33 /usr/lib/gcc-cross/riscv64-linux-gnu/12/../../../../riscv64-linux-gnu/lib/libc.a(strtok_r.o)
 .riscv.attributes
                0x000000000000274f       0x33 /usr/lib/gcc-cross/riscv64-linux-gnu/12/../../../../riscv64-linux-gnu/lib/libc.a(memchr.o)
 .riscv.attributes
                0x0000000000002782       0x33 /usr/lib/gcc-cross/riscv64-linux-gnu/12/../../../../riscv64-linux-gnu/lib/libc.a(memmem.o)
 .riscv.attributes
                0x00000000000027b5       0x33 /usr/lib/gcc-cross/riscv64-linux-gnu/12/../../../../riscv64-linux-gnu/lib/libc.a(argz-ctsep.o)
 .riscv.attributes
                0x00000000000027e8       0x33 /usr/lib/gcc-cross/riscv64-linux-gnu/12/../../../../riscv64-linux-gnu/lib/libc.a(argz-addsep.o)
 .riscv.attributes
                0x000000000000281b       0x33 /usr/lib/gcc-cross/riscv64-linux-gnu/12/../../../../riscv64-linux-gnu/lib/libc.a(wcslen.o)
 .riscv.attributes
                0x000000000000284e       0x33 /usr/lib/gcc-cross/riscv64-linux-gnu/12/../../../../riscv64-linux-gnu/lib/libc.a(wmemcpy.o)
 .riscv.attributes
                0x0000000000002881       0x33 /usr/lib/gcc-cross/riscv64-linux-gnu/12/../../../../riscv64-linux-gnu/lib/libc.a(wmemmove.o)
 .riscv.attributes
                0x00000000000028b4       0x33 /usr/lib/gcc-cross/riscv64-linux-gnu/12/../../../../riscv64-linux-gnu/lib/libc.a(btowc.o)
 .riscv.attributes
                0x00000000000028e7       0x33 /usr/lib/gcc-cross/riscv64-linux-gnu/12/../../../../riscv64-linux-gnu/lib/libc.a(wcrtomb.o)
 .riscv.attributes
                0x000000000000291a       0x33 /usr/lib/gcc-cross/riscv64-linux-gnu/12/../../../../riscv64-linux-gnu/lib/libc.a(wcsrtombs.o)
 .riscv.attributes
                0x000000000000294d       0x33 /usr/lib/gcc-cross/riscv64-linux-gnu/12/../../../../riscv64-linux-gnu/lib/libc.a(wcsnlen.o)
 .riscv.attributes
                0x0000000000002980       0x33 /usr/lib/gcc-cross/riscv64-linux-gnu/12/../../../../riscv64-linux-gnu/lib/libc.a(wcschrnul.o)
 .riscv.attributes
                0x00000000000029b3       0x33 /usr/lib/gcc-cross/riscv64-linux-gnu/12/../../../../riscv64-linux-gnu/lib/libc.a(opendir.o)
 .riscv.attributes
                0x00000000000029e6       0x33 /usr/lib/gcc-cross/riscv64-linux-gnu/12/../../../../riscv64-linux-gnu/lib/libc.a(closedir.o)
 .riscv.attributes
                0x0000000000002a19       0x33 /usr/lib/gcc-cross/riscv64-linux-gnu/12/../../../../riscv64-linux-gnu/lib/libc.a(rewinddir.o)
 .riscv.attributes
                0x0000000000002a4c       0x33 /usr/lib/gcc-cross/riscv64-linux-gnu/12/../../../../riscv64-linux-gnu/lib/libc.a(getdents64.o)
 .riscv.attributes
                0x0000000000002a7f       0x33 /usr/lib/gcc-cross/riscv64-linux-gnu/12/../../../../riscv64-linux-gnu/lib/libc.a(readdir64.o)
 .riscv.attributes
                0x0000000000002ab2       0x33 /usr/lib/gcc-cross/riscv64-linux-gnu/12/../../../../riscv64-linux-gnu/lib/libc.a(fdopendir.o)
 .riscv.attributes
                0x0000000000002ae5       0x33 /usr/lib/gcc-cross/riscv64-linux-gnu/12/../../../../riscv64-linux-gnu/lib/libc.a(uname.o)
 .riscv.attributes
                0x0000000000002b18       0x33 /usr/lib/gcc-cross/riscv64-linux-gnu/12/../../../../riscv64-linux-gnu/lib/libc.a(getuid.o)
 .riscv.attributes
                0x0000000000002b4b       0x33 /usr/lib/gcc-cross/riscv64-linux-gnu/12/../../../../riscv64-linux-gnu/lib/libc.a(geteuid.o)
 .riscv.attributes
                0x0000000000002b7e       0x33 /usr/lib/gcc-cross/riscv64-linux-gnu/12/../../../../riscv64-linux-gnu/lib/libc.a(getgid.o)
 .riscv.attributes
                0x0000000000002bb1       0x33 /usr/lib/gcc-cross/riscv64-linux-gnu/12/../../../../riscv64-linux-gnu/lib/libc.a(getegid.o)
 .riscv.attributes
                0x0000000000002be4       0x33 /usr/lib/gcc-cross/riscv64-linux-gnu/12/../../../../riscv64-linux-gnu/lib/libc.a(sched_getp.o)
 .riscv.attributes
                0x0000000000002c17       0x33 /usr/lib/gcc-cross/riscv64-linux-gnu/12/../../../../riscv64-linux-gnu/lib/libc.a(sched_sets.o)
 .riscv.attributes
                0x0000000000002c4a       0x33 /usr/lib/gcc-cross/riscv64-linux-gnu/12/../../../../riscv64-linux-gnu/lib/libc.a(sched_gets.o)
 .riscv.attributes
                0x0000000000002c7d       0x33 /usr/lib/gcc-cross/riscv64-linux-gnu/12/../../../../riscv64-linux-gnu/lib/libc.a(sched_primax.o)
 .riscv.attributes
                0x0000000000002cb0       0x33 /usr/lib/gcc-cross/riscv64-linux-gnu/12/../../../../riscv64-linux-gnu/lib/libc.a(sched_primin.o)
 .riscv.attributes
                0x0000000000002ce3       0x33 /usr/lib/gcc-cross/riscv64-linux-gnu/12/../../../../riscv64-linux-gnu/lib/libc.a(sched_cpucount.o)
 .riscv.attributes
                0x0000000000002d16       0x33 /usr/lib/gcc-cross/riscv64-linux-gnu/12/../../../../riscv64-linux-gnu/lib/libc.a(lstat64.o)
 .riscv.attributes
                0x0000000000002d49       0x33 /usr/lib/gcc-cross/riscv64-linux-gnu/12/../../../../riscv64-linux-gnu/lib/libc.a(openat64.o)
 .riscv.attributes
                0x0000000000002d7c       0x33 /usr/lib/gcc-cross/riscv64-linux-gnu/12/../../../../riscv64-linux-gnu/lib/libc.a(isatty.o)
 .riscv.attributes
                0x0000000000002daf       0x33 /usr/lib/gcc-cross/riscv64-linux-gnu/12/../../../../riscv64-linux-gnu/lib/libc.a(openat64_nocancel.o)
 .riscv.attributes
                0x0000000000002de2       0x33 /usr/lib/gcc-cross/riscv64-linux-gnu/12/../../../../riscv64-linux-gnu/lib/libc.a(pread64_nocancel.o)
 .riscv.attributes
                0x0000000000002e15       0x33 /usr/lib/gcc-cross/riscv64-linux-gnu/12/../../../../riscv64-linux-gnu/lib/libc.a(tcgetattr.o)
 .riscv.attributes
                0x0000000000002e48       0x33 /usr/lib/gcc-cross/riscv64-linux-gnu/12/../../../../riscv64-linux-gnu/lib/libc.a(single_threaded.o)
 .riscv.attributes
                0x0000000000002e7b       0x33 /usr/lib/gcc-cross/riscv64-linux-gnu/12/../../../../riscv64-linux-gnu/lib/libc.a(wctrans.o)
 .riscv.attributes
                0x0000000000002eae       0x33 /usr/lib/gcc-cross/riscv64-linux-gnu/12/../../../../riscv64-linux-gnu/lib/libc.a(towctrans.o)
 .riscv.attributes
                0x0000000000002ee1       0x33 /usr/lib/gcc-cross/riscv64-linux-gnu/12/../../../../riscv64-linux-gnu/lib/libc.a(readonly-area.o)
 .riscv.attributes
                0x0000000000002f14       0x33 /usr/lib/gcc-cross/riscv64-linux-gnu/12/../../../../riscv64-linux-gnu/lib/libc.a(dl-exception.o)
 .riscv.attributes
                0x0000000000002f47       0x33 /usr/lib/gcc-cross/riscv64-linux-gnu/12/../../../../riscv64-linux-gnu/lib/libc.a(dl-load.o)
 .riscv.attributes
                0x0000000000002f7a       0x33 /usr/lib/gcc-cross/riscv64-linux-gnu/12/../../../../riscv64-linux-gnu/lib/libc.a(dl-lookup.o)
 .riscv.attributes
                0x0000000000002fad       0x33 /usr/lib/gcc-cross/riscv64-linux-gnu/12/../../../../riscv64-linux-gnu/lib/libc.a(dl-minimal-malloc.o)
 .riscv.attributes
                0x0000000000002fe0       0x33 /usr/lib/gcc-cross/riscv64-linux-gnu/12/../../../../riscv64-linux-gnu/lib/libc.a(dl-misc.o)
 .riscv.attributes
                0x0000000000003013       0x33 /usr/lib/gcc-cross/riscv64-linux-gnu/12/../../../../riscv64-linux-gnu/lib/libc.a(dl-object.o)
 .riscv.attributes
                0x0000000000003046       0x33 /usr/lib/gcc-cross/riscv64-linux-gnu/12/../../../../riscv64-linux-gnu/lib/libc.a(dl-origin.o)
 .riscv.attributes
                0x0000000000003079       0x33 /usr/lib/gcc-cross/riscv64-linux-gnu/12/../../../../riscv64-linux-gnu/lib/libc.a(dl-printf.o)
 .riscv.attributes
                0x00000000000030ac       0x33 /usr/lib/gcc-cross/riscv64-linux-gnu/12/../../../../riscv64-linux-gnu/lib/libc.a(dl-profile.o)
 .riscv.attributes
                0x00000000000030df       0x33 /usr/lib/gcc-cross/riscv64-linux-gnu/12/../../../../riscv64-linux-gnu/lib/libc.a(dl-reloc.o)
 .riscv.attributes
                0x0000000000003112       0x33 /usr/lib/gcc-cross/riscv64-linux-gnu/12/../../../../riscv64-linux-gnu/lib/libc.a(dl-scope.o)
 .riscv.attributes
                0x0000000000003145       0x33 /usr/lib/gcc-cross/riscv64-linux-gnu/12/../../../../riscv64-linux-gnu/lib/libc.a(dl-setup_hash.o)
 .riscv.attributes
                0x0000000000003178       0x33 /usr/lib/gcc-cross/riscv64-linux-gnu/12/../../../../riscv64-linux-gnu/lib/libc.a(dl-thread_gscope_wait.o)
 .riscv.attributes
                0x00000000000031ab       0x33 /usr/lib/gcc-cross/riscv64-linux-gnu/12/../../../../riscv64-linux-gnu/lib/libc.a(dl-trampoline.o)
 .riscv.attributes
                0x00000000000031de       0x33 /usr/lib/gcc-cross/riscv64-linux-gnu/12/../../../../riscv64-linux-gnu/lib/libc.a(dl-cache.o)
 .riscv.attributes
                0x0000000000003211       0x33 /usr/lib/gcc-cross/riscv64-linux-gnu/12/../../../../riscv64-linux-gnu/lib/libc.a(dl-libc.o)
 .riscv.attributes
                0x0000000000003244       0x33 /usr/lib/gcc-cross/riscv64-linux-gnu/12/../../../../riscv64-linux-gnu/lib/libc.a(lc-numeric.o)
 .riscv.attributes
                0x0000000000003277       0x33 /usr/lib/gcc-cross/riscv64-linux-gnu/12/../../../../riscv64-linux-gnu/lib/libc.a(C-messages.o)
 .riscv.attributes
                0x00000000000032aa       0x33 /usr/lib/gcc-cross/riscv64-linux-gnu/12/../../../../riscv64-linux-gnu/lib/libc.a(C-monetary.o)
 .riscv.attributes
                0x00000000000032dd       0x33 /usr/lib/gcc-cross/riscv64-linux-gnu/12/../../../../riscv64-linux-gnu/lib/libc.a(C-numeric.o)
 .riscv.attributes
                0x0000000000003310       0x33 /usr/lib/gcc-cross/riscv64-linux-gnu/12/../../../../riscv64-linux-gnu/lib/libc.a(C-time.o)
 .riscv.attributes
                0x0000000000003343       0x33 /usr/lib/gcc-cross/riscv64-linux-gnu/12/../../../../riscv64-linux-gnu/lib/libc.a(C-paper.o)
 .riscv.attributes
                0x0000000000003376       0x33 /usr/lib/gcc-cross/riscv64-linux-gnu/12/../../../../riscv64-linux-gnu/lib/libc.a(C-name.o)
 .riscv.attributes
                0x00000000000033a9       0x33 /usr/lib/gcc-cross/riscv64-linux-gnu/12/../../../../riscv64-linux-gnu/lib/libc.a(C-address.o)
 .riscv.attributes
                0x00000000000033dc       0x33 /usr/lib/gcc-cross/riscv64-linux-gnu/12/../../../../riscv64-linux-gnu/lib/libc.a(C-telephone.o)
 .riscv.attributes
                0x000000000000340f       0x33 /usr/lib/gcc-cross/riscv64-linux-gnu/12/../../../../riscv64-linux-gnu/lib/libc.a(C-measurement.o)
 .riscv.attributes
                0x0000000000003442       0x33 /usr/lib/gcc-cross/riscv64-linux-gnu/12/../../../../riscv64-linux-gnu/lib/libc.a(C-identification.o)
 .riscv.attributes
                0x0000000000003475       0x33 /usr/lib/gcc-cross/riscv64-linux-gnu/12/../../../../riscv64-linux-gnu/lib/libc.a(C-collate.o)
 .riscv.attributes
                0x00000000000034a8       0x33 /usr/lib/gcc-cross/riscv64-linux-gnu/12/../../../../riscv64-linux-gnu/lib/libc.a(_itoa.o)
 .riscv.attributes
                0x00000000000034db       0x33 /usr/lib/gcc-cross/riscv64-linux-gnu/12/../../../../riscv64-linux-gnu/lib/libc.a(itoa-digits.o)
 .riscv.attributes
                0x000000000000350e       0x33 /usr/lib/gcc-cross/riscv64-linux-gnu/12/../../../../riscv64-linux-gnu/lib/libc.a(itoa-udigits.o)
 .riscv.attributes
                0x0000000000003541       0x33 /usr/lib/gcc-cross/riscv64-linux-gnu/12/../../../../riscv64-linux-gnu/lib/libc.a(itowa-digits.o)
 .riscv.attributes
                0x0000000000003574       0x33 /usr/lib/gcc-cross/riscv64-linux-gnu/12/../../../../riscv64-linux-gnu/lib/libc.a(printf_fp.o)
 .riscv.attributes
                0x00000000000035a7       0x33 /usr/lib/gcc-cross/riscv64-linux-gnu/12/../../../../riscv64-linux-gnu/lib/libc.a(reg-printf.o)
 .riscv.attributes
                0x00000000000035da       0x33 /usr/lib/gcc-cross/riscv64-linux-gnu/12/../../../../riscv64-linux-gnu/lib/libc.a(printf_fphex.o)
 .riscv.attributes
                0x000000000000360d       0x33 /usr/lib/gcc-cross/riscv64-linux-gnu/12/../../../../riscv64-linux-gnu/lib/libc.a(reg-modifier.o)
 .riscv.attributes
                0x0000000000003640       0x33 /usr/lib/gcc-cross/riscv64-linux-gnu/12/../../../../riscv64-linux-gnu/lib/libc.a(reg-type.o)
 .riscv.attributes
                0x0000000000003673       0x33 /usr/lib/gcc-cross/riscv64-linux-gnu/12/../../../../riscv64-linux-gnu/lib/libc.a(snprintf.o)
 .riscv.attributes
                0x00000000000036a6       0x33 /usr/lib/gcc-cross/riscv64-linux-gnu/12/../../../../riscv64-linux-gnu/lib/libc.a(funlockfile.o)
 .riscv.attributes
                0x00000000000036d9       0x33 /usr/lib/gcc-cross/riscv64-linux-gnu/12/../../../../riscv64-linux-gnu/lib/libc.a(vsnprintf.o)
 .riscv.attributes
                0x000000000000370c       0x33 /usr/lib/gcc-cross/riscv64-linux-gnu/12/../../../../riscv64-linux-gnu/lib/libc.a(cleanup_compat.o)
 .riscv.attributes
                0x000000000000373f       0x33 /usr/lib/gcc-cross/riscv64-linux-gnu/12/../../../../riscv64-linux-gnu/lib/libc.a(nptl-stack.o)
 .riscv.attributes
                0x0000000000003772       0x33 /usr/lib/gcc-cross/riscv64-linux-gnu/12/../../../../riscv64-linux-gnu/lib/libc.a(strspn.o)
 .riscv.attributes
                0x00000000000037a5       0x33 /usr/lib/gcc-cross/riscv64-linux-gnu/12/../../../../riscv64-linux-gnu/lib/libc.a(strsep.o)
 .riscv.attributes
                0x00000000000037d8       0x33 /usr/lib/gcc-cross/riscv64-linux-gnu/12/../../../../riscv64-linux-gnu/lib/libc.a(wmemchr.o)
 .riscv.attributes
                0x000000000000380b       0x33 /usr/lib/gcc-cross/riscv64-linux-gnu/12/../../../../riscv64-linux-gnu/lib/libc.a(wmemset.o)
 .riscv.attributes
                0x000000000000383e       0x33 /usr/lib/gcc-cross/riscv64-linux-gnu/12/../../../../riscv64-linux-gnu/lib/libc.a(stat64.o)
 .riscv.attributes
                0x0000000000003871       0x33 /usr/lib/gcc-cross/riscv64-linux-gnu/12/../../../../riscv64-linux-gnu/lib/libc.a(profil.o)
 .riscv.attributes
                0x00000000000038a4       0x33 /usr/lib/gcc-cross/riscv64-linux-gnu/12/../../../../riscv64-linux-gnu/lib/libc.a(prof-freq.o)
 .riscv.attributes
                0x00000000000038d7       0x33 /usr/lib/gcc-cross/riscv64-linux-gnu/12/../../../../riscv64-linux-gnu/lib/libc.a(dl-close.o)
 .riscv.attributes
                0x000000000000390a       0x33 /usr/lib/gcc-cross/riscv64-linux-gnu/12/../../../../riscv64-linux-gnu/lib/libc.a(dl-execstack.o)
 .riscv.attributes
                0x000000000000393d       0x33 /usr/lib/gcc-cross/riscv64-linux-gnu/12/../../../../riscv64-linux-gnu/lib/libc.a(dl-find_object.o)
 .riscv.attributes
                0x0000000000003970       0x33 /usr/lib/gcc-cross/riscv64-linux-gnu/12/../../../../riscv64-linux-gnu/lib/libc.a(dl-open.o)
 .riscv.attributes
                0x00000000000039a3       0x33 /usr/lib/gcc-cross/riscv64-linux-gnu/12/../../../../riscv64-linux-gnu/lib/libc.a(dl-runtime.o)
 .riscv.attributes
                0x00000000000039d6       0x33 /usr/lib/gcc-cross/riscv64-linux-gnu/12/../../../../riscv64-linux-gnu/lib/libc.a(dl-sort-maps.o)
 .riscv.attributes
                0x0000000000003a09       0x33 /usr/lib/gcc-cross/riscv64-linux-gnu/12/../../../../riscv64-linux-gnu/lib/libc.a(dl-version.o)
 .riscv.attributes
                0x0000000000003a3c       0x33 /usr/lib/gcc-cross/riscv64-linux-gnu/12/../../../../riscv64-linux-gnu/lib/libc.a(dl-addr-obj.o)
 .riscv.attributes
                0x0000000000003a6f       0x33 /usr/lib/gcc-cross/riscv64-linux-gnu/12/../../../../riscv64-linux-gnu/lib/libc.a(rtld_static_init.o)
 .riscv.attributes
                0x0000000000003aa2       0x33 /usr/lib/gcc-cross/riscv64-linux-gnu/12/../../../../riscv64-linux-gnu/lib/libc.a(lc-monetary.o)
 .riscv.attributes
                0x0000000000003ad5       0x33 /usr/lib/gcc-cross/riscv64-linux-gnu/12/../../../../riscv64-linux-gnu/lib/libc.a(cmp.o)
 .riscv.attributes
                0x0000000000003b08       0x33 /usr/lib/gcc-cross/riscv64-linux-gnu/12/../../../../riscv64-linux-gnu/lib/libc.a(divrem.o)
 .riscv.attributes
                0x0000000000003b3b       0x33 /usr/lib/gcc-cross/riscv64-linux-gnu/12/../../../../riscv64-linux-gnu/lib/libc.a(lshift.o)
 .riscv.attributes
                0x0000000000003b6e       0x33 /usr/lib/gcc-cross/riscv64-linux-gnu/12/../../../../riscv64-linux-gnu/lib/libc.a(rshift.o)
 .riscv.attributes
                0x0000000000003ba1       0x33 /usr/lib/gcc-cross/riscv64-linux-gnu/12/../../../../riscv64-linux-gnu/lib/libc.a(mul.o)
 .riscv.attributes
                0x0000000000003bd4       0x33 /usr/lib/gcc-cross/riscv64-linux-gnu/12/../../../../riscv64-linux-gnu/lib/libc.a(mul_1.o)
 .riscv.attributes
                0x0000000000003c07       0x33 /usr/lib/gcc-cross/riscv64-linux-gnu/12/../../../../riscv64-linux-gnu/lib/libc.a(mul_n.o)
 .riscv.attributes
                0x0000000000003c3a       0x33 /usr/lib/gcc-cross/riscv64-linux-gnu/12/../../../../riscv64-linux-gnu/lib/libc.a(sub_n.o)
 .riscv.attributes
                0x0000000000003c6d       0x33 /usr/lib/gcc-cross/riscv64-linux-gnu/12/../../../../riscv64-linux-gnu/lib/libc.a(submul_1.o)
 .riscv.attributes
                0x0000000000003ca0       0x33 /usr/lib/gcc-cross/riscv64-linux-gnu/12/../../../../riscv64-linux-gnu/lib/libc.a(dbl2mpn.o)
 .riscv.attributes
                0x0000000000003cd3       0x33 /usr/lib/gcc-cross/riscv64-linux-gnu/12/../../../../riscv64-linux-gnu/lib/libc.a(ldbl2mpn.o)
 .riscv.attributes
                0x0000000000003d06       0x33 /usr/lib/gcc-cross/riscv64-linux-gnu/12/../../../../riscv64-linux-gnu/lib/libc.a(fpioconst.o)
 .riscv.attributes
                0x0000000000003d39       0x33 /usr/lib/gcc-cross/riscv64-linux-gnu/12/../../../../riscv64-linux-gnu/lib/libc.a(mp_clz_tab.o)
 .riscv.attributes
                0x0000000000003d6c       0x33 /usr/lib/gcc-cross/riscv64-linux-gnu/12/../../../../riscv64-linux-gnu/lib/libc.a(dladdr.o)
 .riscv.attributes
                0x0000000000003d9f       0x33 /usr/lib/gcc-cross/riscv64-linux-gnu/12/../../../../riscv64-linux-gnu/lib/libc.a(dladdr1.o)
 .riscv.attributes
                0x0000000000003dd2       0x33 /usr/lib/gcc-cross/riscv64-linux-gnu/12/../../../../riscv64-linux-gnu/lib/libc.a(dlclose.o)
 .riscv.attributes
                0x0000000000003e05       0x33 /usr/lib/gcc-cross/riscv64-linux-gnu/12/../../../../riscv64-linux-gnu/lib/libc.a(dlerror.o)
 .riscv.attributes
                0x0000000000003e38       0x33 /usr/lib/gcc-cross/riscv64-linux-gnu/12/../../../../riscv64-linux-gnu/lib/libc.a(dlinfo.o)
 .riscv.attributes
                0x0000000000003e6b       0x33 /usr/lib/gcc-cross/riscv64-linux-gnu/12/../../../../riscv64-linux-gnu/lib/libc.a(dlmopen.o)
 .riscv.attributes
                0x0000000000003e9e       0x33 /usr/lib/gcc-cross/riscv64-linux-gnu/12/../../../../riscv64-linux-gnu/lib/libc.a(dlopen.o)
 .riscv.attributes
                0x0000000000003ed1       0x33 /usr/lib/gcc-cross/riscv64-linux-gnu/12/../../../../riscv64-linux-gnu/lib/libc.a(dlsym.o)
 .riscv.attributes
                0x0000000000003f04       0x33 /usr/lib/gcc-cross/riscv64-linux-gnu/12/../../../../riscv64-linux-gnu/lib/libc.a(dlvsym.o)
 .riscv.attributes
                0x0000000000003f37       0x33 /usr/lib/gcc-cross/riscv64-linux-gnu/12/../../../../riscv64-linux-gnu/lib/libc.a(libc_dlerror_result.o)
 .riscv.attributes
                0x0000000000003f6a       0x33 /usr/lib/gcc-cross/riscv64-linux-gnu/12/../../../../riscv64-linux-gnu/lib/libc.a(setitimer.o)
 .riscv.attributes
                0x0000000000003f9d       0x33 /usr/lib/gcc-cross/riscv64-linux-gnu/12/../../../../riscv64-linux-gnu/lib/libc.a(dl-call-libc-early-init.o)
 .riscv.attributes
                0x0000000000003fd0       0x33 /usr/lib/gcc-cross/riscv64-linux-gnu/12/../../../../riscv64-linux-gnu/lib/libc.a(dl-deps.o)
 .riscv.attributes
                0x0000000000004003       0x33 /usr/lib/gcc-cross/riscv64-linux-gnu/12/../../../../riscv64-linux-gnu/lib/libc.a(dl-init.o)
 .riscv.attributes
                0x0000000000004036       0x33 /usr/lib/gcc-cross/riscv64-linux-gnu/12/../../../../riscv64-linux-gnu/lib/libc.a(dl-lookup-direct.o)
 .riscv.attributes
                0x0000000000004069       0x33 /usr/lib/gcc-cross/riscv64-linux-gnu/12/../../../../riscv64-linux-gnu/lib/libc.a(dl-addr.o)
 .riscv.attributes
                0x000000000000409c       0x33 /usr/lib/gcc-cross/riscv64-linux-gnu/12/../../../../riscv64-linux-gnu/lib/libc.a(dl-sym.o)
 .riscv.attributes
                0x00000000000040cf       0x33 /usr/lib/gcc-cross/riscv64-linux-gnu/12/../../../../riscv64-linux-gnu/lib/libc.a(add_n.o)
 .riscv.attributes
                0x0000000000004102       0x33 /usr/lib/gcc-cross/riscv64-linux-gnu/12/../../../../riscv64-linux-gnu/lib/libc.a(addmul_1.o)
 .riscv.attributes
                0x0000000000004135       0x4a /usr/lib/gcc-cross/riscv64-linux-gnu/12/libgcc.a(_ctzsi2.o)
 .riscv.attributes
                0x000000000000417f       0x4a /usr/lib/gcc-cross/riscv64-linux-gnu/12/libgcc.a(_bswapsi2.o)
 .riscv.attributes
                0x00000000000041c9       0x4e /usr/lib/gcc-cross/riscv64-linux-gnu/12/libgcc.a(letf2.o)
 .riscv.attributes
                0x0000000000004217       0x4e /usr/lib/gcc-cross/riscv64-linux-gnu/12/libgcc.a(unordtf2.o)
 .riscv.attributes
                0x0000000000004265       0x4a /usr/lib/gcc-cross/riscv64-linux-gnu/12/libgcc_eh.a(unwind-dw2.o)
 .riscv.attributes
                0x00000000000042af       0x4a /usr/lib/gcc-cross/riscv64-linux-gnu/12/libgcc_eh.a(unwind-dw2-fde-dip.o)
 .riscv.attributes
                0x00000000000042f9       0x4a /usr/lib/gcc-cross/riscv64-linux-gnu/12/libgcc_eh.a(unwind-c.o)
 .riscv.attributes
                0x0000000000004343       0x4a /usr/lib/gcc-cross/riscv64-linux-gnu/12/crtend.o
 .riscv.attributes
                0x000000000000438d       0x48 /usr/lib/gcc-cross/riscv64-linux-gnu/12/crtn.o

.gnu.build.attributes
 *(.gnu.build.attributes .gnu.build.attributes.*)

.debug
 *(.debug)

.line
 *(.line)

.debug_srcinfo
 *(.debug_srcinfo)

.debug_sfnames
 *(.debug_sfnames)

.debug_aranges
 *(.debug_aranges)

.debug_pubnames
 *(.debug_pubnames)

.debug_info
 *(.debug_info .gnu.linkonce.wi.*)

.debug_abbrev
 *(.debug_abbrev)

.debug_line
 *(.debug_line .debug_line.* .debug_line_end)

.debug_frame
 *(.debug_frame)

.debug_str
 *(.debug_str)

.debug_loc
 *(.debug_loc)

.debug_macinfo
 *(.debug_macinfo)

.debug_weaknames
 *(.debug_weaknames)

.debug_funcnames
 *(.debug_funcnames)

.debug_typenames
 *(.debug_typenames)

.debug_varnames
 *(.debug_varnames)

.debug_pubtypes
 *(.debug_pubtypes)

.debug_ranges
 *(.debug_ranges)

.debug_addr
 *(.debug_addr)

.debug_line_str
 *(.debug_line_str)

.debug_loclists
 *(.debug_loclists)

.debug_macro
 *(.debug_macro)

.debug_names
 *(.debug_names)

.debug_rnglists
 *(.debug_rnglists)

.debug_str_offsets
 *(.debug_str_offsets)

.debug_sup
 *(.debug_sup)

.gnu.attributes
 *(.gnu.attributes)

/DISCARD/
 *(.note.GNU-stack)
 *(.gnu_debuglink)
 *(.gnu.lto_*)
OUTPUT(sum.elf elf64-littleriscv)
